0040C2D4	CALL     0x40be27                                         EAX=0000007D ECX=77AE3804 EDX=0040C2D4 EBX=00403BB7 ESP=0018FE48 EBP=0018FF04 ESI=0040C4CF EDI=0018FE48 EFLAG=00000287
0040BE27	NOT      SI                                               EAX=0000007D ECX=77AE3804 EDX=0040C2D4 EBX=00403BB7 ESP=0018FE44 EBP=0018FF04 ESI=0040C4CF EDI=0018FE48 EFLAG=00000287
0040BE2A	MOV      ESI, [EBP+0x0]                                   EAX=0000007D ECX=77AE3804 EDX=0040C2D4 EBX=00403BB7 ESP=0018FE44 EBP=0018FF04 ESI=00403B30 EDI=0018FE48 EFLAG=00000287
0040BE2D	MOV      [ESP], DH                                        EAX=0000007D ECX=77AE3804 EDX=0040C2D4 EBX=00403BB7 ESP=0018FE44 EBP=0018FF04 ESI=0040C71D EDI=0018FE48 EFLAG=00000287
0040BE30	CLC                                                       EAX=0000007D ECX=77AE3804 EDX=0040C2D4 EBX=00403BB7 ESP=0018FE44 EBP=0018FF04 ESI=0040C71D EDI=0018FE48 EFLAG=00000287
0040BE31	CALL     0x40a4f1                                         EAX=0000007D ECX=77AE3804 EDX=0040C2D4 EBX=00403BB7 ESP=0018FE44 EBP=0018FF04 ESI=0040C71D EDI=0018FE48 EFLAG=00000286
0040A4F1	ADD      EBP, 0x4                                         EAX=0000007D ECX=77AE3804 EDX=0040C2D4 EBX=00403BB7 ESP=0018FE40 EBP=0018FF04 ESI=0040C71D EDI=0018FE48 EFLAG=00000286
0040A4F4	PUSH     ECX                                              EAX=0000007D ECX=77AE3804 EDX=0040C2D4 EBX=00403BB7 ESP=0018FE40 EBP=0018FF08 ESI=0040C71D EDI=0018FE48 EFLAG=00000202
0040A4F5	PUSHA                                                     EAX=0000007D ECX=77AE3804 EDX=0040C2D4 EBX=00403BB7 ESP=0018FE3C EBP=0018FF08 ESI=0040C71D EDI=0018FE48 EFLAG=00000202
0040A4F6	PUSHF                                                     EAX=0000007D ECX=77AE3804 EDX=0040C2D4 EBX=00403BB7 ESP=0018FE1C EBP=0018FF08 ESI=0040C71D EDI=0018FE48 EFLAG=00000202
0040A4F7	LEA      ESP, [ESP+0x30]                                  EAX=0000007D ECX=77AE3804 EDX=0040C2D4 EBX=00403BB7 ESP=0018FE18 EBP=0018FF08 ESI=0040C71D EDI=0018FE48 EFLAG=00000202
0040B1F6	ADC      BX, BP                                           EAX=0000007D ECX=77AE3804 EDX=0040C2D4 EBX=00403BB7 ESP=0018FE48 EBP=0018FF08 ESI=0040C71D EDI=0018FE48 EFLAG=00000202
0040B1F9	NEG      AL                                               EAX=0000007D ECX=77AE3804 EDX=0040C2D4 EBX=00403ABF ESP=0018FE48 EBP=0018FF08 ESI=0040C71D EDI=0018FE48 EFLAG=00000203
0040B1FB	BT       BX, 0x3                                          EAX=00000083 ECX=77AE3804 EDX=0040C2D4 EBX=00403ABF ESP=0018FE48 EBP=0018FF08 ESI=0040C71D EDI=0018FE48 EFLAG=00000293
0040B200	SAR      AL, CL                                           EAX=00000083 ECX=77AE3804 EDX=0040C2D4 EBX=00403ABF ESP=0018FE48 EBP=0018FF08 ESI=0040C71D EDI=0018FE48 EFLAG=00000293
0040B202	MOV      EBX, ESI                                         EAX=000000F8 ECX=77AE3804 EDX=0040C2D4 EBX=00403ABF ESP=0018FE48 EBP=0018FF08 ESI=0040C71D EDI=0018FE48 EFLAG=00000282
0040B204	CALL     0x40beec                                         EAX=000000F8 ECX=77AE3804 EDX=0040C2D4 EBX=0040C71D ESP=0018FE48 EBP=0018FF08 ESI=0040C71D EDI=0018FE48 EFLAG=00000282
0040BEEC	SHRD     DX, SI, 0xa                                      EAX=000000F8 ECX=77AE3804 EDX=0040C2D4 EBX=0040C71D ESP=0018FE44 EBP=0018FF08 ESI=0040C71D EDI=0018FE48 EFLAG=00000282
0040BEF1	MOVZX    EDX, CL                                          EAX=000000F8 ECX=77AE3804 EDX=0040C770 EBX=0040C71D ESP=0018FE44 EBP=0018FF08 ESI=0040C71D EDI=0018FE48 EFLAG=00000283
0040BEF4	DEC      AL                                               EAX=000000F8 ECX=77AE3804 EDX=00000004 EBX=0040C71D ESP=0018FE44 EBP=0018FF08 ESI=0040C71D EDI=0018FE48 EFLAG=00000283
0040BEF6	ADD      ESI, [EBP+0x0]                                   EAX=000000F7 ECX=77AE3804 EDX=00000004 EBX=0040C71D ESP=0018FE44 EBP=0018FF08 ESI=0040C71D EDI=0018FE48 EFLAG=00000283
0040BEF9	LEA      ESP, [ESP+0x4]                                   EAX=000000F7 ECX=77AE3804 EDX=00000004 EBX=0040C71D ESP=0018FE44 EBP=0018FF08 ESI=0040C71D EDI=0018FE48 EFLAG=00000206
0040BEFD	BSWAP    DX                                               EAX=000000F7 ECX=77AE3804 EDX=00000004 EBX=0040C71D ESP=0018FE48 EBP=0018FF08 ESI=0040C71D EDI=0018FE48 EFLAG=00000206
0040BF00	RCL      DL, CL                                           EAX=000000F7 ECX=77AE3804 EDX=00000000 EBX=0040C71D ESP=0018FE48 EBP=0018FF08 ESI=0040C71D EDI=0018FE48 EFLAG=00000206
0040BF02	PUSHA                                                     EAX=000000F7 ECX=77AE3804 EDX=00000000 EBX=0040C71D ESP=0018FE48 EBP=0018FF08 ESI=0040C71D EDI=0018FE48 EFLAG=00000206
0040BF03	AND      EDX, 0xfdc85d80                                  EAX=000000F7 ECX=77AE3804 EDX=00000000 EBX=0040C71D ESP=0018FE28 EBP=0018FF08 ESI=0040C71D EDI=0018FE48 EFLAG=00000206
0040BF09	MOV      AL, [ESI-0x1]                                    EAX=000000F7 ECX=77AE3804 EDX=00000000 EBX=0040C71D ESP=0018FE28 EBP=0018FF08 ESI=0040C71D EDI=0018FE48 EFLAG=00000246
0040BF0C	DEC      DH                                               EAX=00000015 ECX=77AE3804 EDX=00000000 EBX=0040C71D ESP=0018FE28 EBP=0018FF08 ESI=0040C71D EDI=0018FE48 EFLAG=00000246
0040BF0E	SUB      AL, BL                                           EAX=00000015 ECX=77AE3804 EDX=0000FF00 EBX=0040C71D ESP=0018FE28 EBP=0018FF08 ESI=0040C71D EDI=0018FE48 EFLAG=00000296
0040BF10	PUSHF                                                     EAX=000000F8 ECX=77AE3804 EDX=0000FF00 EBX=0040C71D ESP=0018FE28 EBP=0018FF08 ESI=0040C71D EDI=0018FE48 EFLAG=00000293
0040BF11	BTC      DX, 0x4                                          EAX=000000F8 ECX=77AE3804 EDX=0000FF00 EBX=0040C71D ESP=0018FE24 EBP=0018FF08 ESI=0040C71D EDI=0018FE48 EFLAG=00000293
0040BF16	PUSH     ESP                                              EAX=000000F8 ECX=77AE3804 EDX=0000FF10 EBX=0040C71D ESP=0018FE24 EBP=0018FF08 ESI=0040C71D EDI=0018FE48 EFLAG=00000292
0040BF17	MOVZX    DX, AL                                           EAX=000000F8 ECX=77AE3804 EDX=0000FF10 EBX=0040C71D ESP=0018FE20 EBP=0018FF08 ESI=0040C71D EDI=0018FE48 EFLAG=00000292
0040BF1B	ROR      AL, 0x7                                          EAX=000000F8 ECX=77AE3804 EDX=000000F8 EBX=0040C71D ESP=0018FE20 EBP=0018FF08 ESI=0040C71D EDI=0018FE48 EFLAG=00000292
0040BF1E	ROL      DH, 0x3                                          EAX=000000F1 ECX=77AE3804 EDX=000000F8 EBX=0040C71D ESP=0018FE20 EBP=0018FF08 ESI=0040C71D EDI=0018FE48 EFLAG=00000293
0040BF21	SUB      AL, 0x30                                         EAX=000000F1 ECX=77AE3804 EDX=000000F8 EBX=0040C71D ESP=0018FE20 EBP=0018FF08 ESI=0040C71D EDI=0018FE48 EFLAG=00000292
0040BF23	SHR      DX, 0x9                                          EAX=000000C1 ECX=77AE3804 EDX=000000F8 EBX=0040C71D ESP=0018FE20 EBP=0018FF08 ESI=0040C71D EDI=0018FE48 EFLAG=00000282
0040BF27	XOR      AL, 0xce                                         EAX=000000C1 ECX=77AE3804 EDX=00000000 EBX=0040C71D ESP=0018FE20 EBP=0018FF08 ESI=0040C71D EDI=0018FE48 EFLAG=00000246
0040BF29	ADC      DL, 0xdb                                         EAX=0000000F ECX=77AE3804 EDX=00000000 EBX=0040C71D ESP=0018FE20 EBP=0018FF08 ESI=0040C71D EDI=0018FE48 EFLAG=00000206
0040BF2C	BT       EBX, EDI                                         EAX=0000000F ECX=77AE3804 EDX=000000DB EBX=0040C71D ESP=0018FE20 EBP=0018FF08 ESI=0040C71D EDI=0018FE48 EFLAG=00000286
0040BF2F	SETL     DH                                               EAX=0000000F ECX=77AE3804 EDX=000000DB EBX=0040C71D ESP=0018FE20 EBP=0018FF08 ESI=0040C71D EDI=0018FE48 EFLAG=00000287
0040BF32	SUB      BL, AL                                           EAX=0000000F ECX=77AE3804 EDX=000001DB EBX=0040C71D ESP=0018FE20 EBP=0018FF08 ESI=0040C71D EDI=0018FE48 EFLAG=00000287
0040BF34	STC                                                       EAX=0000000F ECX=77AE3804 EDX=000001DB EBX=0040C70E ESP=0018FE20 EBP=0018FF08 ESI=0040C71D EDI=0018FE48 EFLAG=00000212
0040BF35	MOVZX    EAX, AL                                          EAX=0000000F ECX=77AE3804 EDX=000001DB EBX=0040C70E ESP=0018FE20 EBP=0018FF08 ESI=0040C71D EDI=0018FE48 EFLAG=00000213
0040BF38	NOT      EDX                                              EAX=0000000F ECX=77AE3804 EDX=000001DB EBX=0040C70E ESP=0018FE20 EBP=0018FF08 ESI=0040C71D EDI=0018FE48 EFLAG=00000213
0040BF3A	BSF      EDX, EDI                                         EAX=0000000F ECX=77AE3804 EDX=FFFFFE24 EBX=0040C70E ESP=0018FE20 EBP=0018FF08 ESI=0040C71D EDI=0018FE48 EFLAG=00000213
0040BF3E	CMC                                                       EAX=0000000F ECX=77AE3804 EDX=FFFF0003 EBX=0040C70E ESP=0018FE20 EBP=0018FF08 ESI=0040C71D EDI=0018FE48 EFLAG=00000206
0040BF3F	SAL      DH, CL                                           EAX=0000000F ECX=77AE3804 EDX=FFFF0003 EBX=0040C70E ESP=0018FE20 EBP=0018FF08 ESI=0040C71D EDI=0018FE48 EFLAG=00000207
0040BF41	MOV      EDX, [EAX*4+0x40a51f]                            EAX=0000000F ECX=77AE3804 EDX=FFFF0003 EBX=0040C70E ESP=0018FE20 EBP=0018FF08 ESI=0040C71D EDI=0018FE48 EFLAG=00000246
0040BF48	TEST     EDX, 0xe75c2a09                                  EAX=0000000F ECX=77AE3804 EDX=2BFA6887 EBX=0040C70E ESP=0018FE20 EBP=0018FF08 ESI=0040C71D EDI=0018FE48 EFLAG=00000246
0040BF4E	TEST     BL, DL                                           EAX=0000000F ECX=77AE3804 EDX=2BFA6887 EBX=0040C70E ESP=0018FE20 EBP=0018FF08 ESI=0040C71D EDI=0018FE48 EFLAG=00000202
0040BF50	SUB      EDX, 0x2bb9b71b                                  EAX=0000000F ECX=77AE3804 EDX=2BFA6887 EBX=0040C70E ESP=0018FE20 EBP=0018FF08 ESI=0040C71D EDI=0018FE48 EFLAG=00000206
0040BF56	CALL     0x40bd78                                         EAX=0000000F ECX=77AE3804 EDX=0040B16C EBX=0040C70E ESP=0018FE20 EBP=0018FF08 ESI=0040C71D EDI=0018FE48 EFLAG=00000216
0040BD78	PUSH     EDX                                              EAX=0000000F ECX=77AE3804 EDX=0040B16C EBX=0040C70E ESP=0018FE1C EBP=0018FF08 ESI=0040C71D EDI=0018FE48 EFLAG=00000216
0040BD79	DEC      ESI                                              EAX=0000000F ECX=77AE3804 EDX=0040B16C EBX=0040C70E ESP=0018FE18 EBP=0018FF08 ESI=0040C71D EDI=0018FE48 EFLAG=00000216
0040BD7A	PUSHF                                                     EAX=0000000F ECX=77AE3804 EDX=0040B16C EBX=0040C70E ESP=0018FE18 EBP=0018FF08 ESI=0040C71C EDI=0018FE48 EFLAG=00000202
0040A91F	MOV      [ESP], DH                                        EAX=0000000F ECX=77AE3804 EDX=0040B16C EBX=0040C70E ESP=0018FE14 EBP=0018FF08 ESI=0040C71C EDI=0018FE48 EFLAG=00000202
0040A922	MOV      [ESP+0x30], EDX                                  EAX=0000000F ECX=77AE3804 EDX=0040B16C EBX=0040C70E ESP=0018FE14 EBP=0018FF08 ESI=0040C71C EDI=0018FE48 EFLAG=00000202
0040A926	MOV      [ESP], AL                                        EAX=0000000F ECX=77AE3804 EDX=0040B16C EBX=0040C70E ESP=0018FE14 EBP=0018FF08 ESI=0040C71C EDI=0018FE48 EFLAG=00000202
0040A929	PUSH     DWORD [ESP+0x30]                                 EAX=0000000F ECX=77AE3804 EDX=0040B16C EBX=0040C70E ESP=0018FE14 EBP=0018FF08 ESI=0040C71C EDI=0018FE48 EFLAG=00000202
0040A92D	RET      0x34                                             EAX=0000000F ECX=77AE3804 EDX=0040B16C EBX=0040C70E ESP=0018FE10 EBP=0018FF08 ESI=0040C71C EDI=0018FE48 EFLAG=00000202
0040B16C	CALL     0x40bb09                                         EAX=0000000F ECX=77AE3804 EDX=0040B16C EBX=0040C70E ESP=0018FE48 EBP=0018FF08 ESI=0040C71C EDI=0018FE48 EFLAG=00000202
0040BB09	SUB      DL, AH                                           EAX=0000000F ECX=77AE3804 EDX=0040B16C EBX=0040C70E ESP=0018FE44 EBP=0018FF08 ESI=0040C71C EDI=0018FE48 EFLAG=00000202
0040BB0B	MOV      AL, [ESI-0x1]                                    EAX=0000000F ECX=77AE3804 EDX=0040B16C EBX=0040C70E ESP=0018FE44 EBP=0018FF08 ESI=0040C71C EDI=0018FE48 EFLAG=00000206
0040BB0E	LEA      ESP, [ESP+0x4]                                   EAX=000000E3 ECX=77AE3804 EDX=0040B16C EBX=0040C70E ESP=0018FE44 EBP=0018FF08 ESI=0040C71C EDI=0018FE48 EFLAG=00000206
0040BB12	JNP      0x40bd9a                                         EAX=000000E3 ECX=77AE3804 EDX=0040B16C EBX=0040C70E ESP=0018FE48 EBP=0018FF08 ESI=0040C71C EDI=0018FE48 EFLAG=00000206
0040BB18	BSR      EDX, ECX                                         EAX=000000E3 ECX=77AE3804 EDX=0040B16C EBX=0040C70E ESP=0018FE48 EBP=0018FF08 ESI=0040C71C EDI=0018FE48 EFLAG=00000206
0040BB1B	ADD      AL, BL                                           EAX=000000E3 ECX=77AE3804 EDX=0000001E EBX=0040C70E ESP=0018FE48 EBP=0018FF08 ESI=0040C71C EDI=0018FE48 EFLAG=00000206
0040BB1D	PUSH     EDX                                              EAX=000000F1 ECX=77AE3804 EDX=0000001E EBX=0040C70E ESP=0018FE48 EBP=0018FF08 ESI=0040C71C EDI=0018FE48 EFLAG=00000292
0040BB1E	DEC      AL                                               EAX=000000F1 ECX=77AE3804 EDX=0000001E EBX=0040C70E ESP=0018FE44 EBP=0018FF08 ESI=0040C71C EDI=0018FE48 EFLAG=00000292
0040BB20	DEC      DH                                               EAX=000000F0 ECX=77AE3804 EDX=0000001E EBX=0040C70E ESP=0018FE44 EBP=0018FF08 ESI=0040C71C EDI=0018FE48 EFLAG=00000286
0040BB22	NEG      AL                                               EAX=000000F0 ECX=77AE3804 EDX=0000FF1E EBX=0040C70E ESP=0018FE44 EBP=0018FF08 ESI=0040C71C EDI=0018FE48 EFLAG=00000296
0040BB24	CALL     0x40b99f                                         EAX=00000010 ECX=77AE3804 EDX=0000FF1E EBX=0040C70E ESP=0018FE44 EBP=0018FF08 ESI=0040C71C EDI=0018FE48 EFLAG=00000203
0040B99F	BTC      EDX, 0xe                                         EAX=00000010 ECX=77AE3804 EDX=0000FF1E EBX=0040C70E ESP=0018FE40 EBP=0018FF08 ESI=0040C71C EDI=0018FE48 EFLAG=00000203
0040B9A3	MOVZX    EDX, DL                                          EAX=00000010 ECX=77AE3804 EDX=0000BF1E EBX=0040C70E ESP=0018FE40 EBP=0018FF08 ESI=0040C71C EDI=0018FE48 EFLAG=00000203
0040B9A6	CMC                                                       EAX=00000010 ECX=77AE3804 EDX=0000001E EBX=0040C70E ESP=0018FE40 EBP=0018FF08 ESI=0040C71C EDI=0018FE48 EFLAG=00000203
0040B9A7	ROR      AL, 0x1                                          EAX=00000010 ECX=77AE3804 EDX=0000001E EBX=0040C70E ESP=0018FE40 EBP=0018FF08 ESI=0040C71C EDI=0018FE48 EFLAG=00000202
0040B9A9	SBB      DX, 0x612a                                       EAX=00000008 ECX=77AE3804 EDX=0000001E EBX=0040C70E ESP=0018FE40 EBP=0018FF08 ESI=0040C71C EDI=0018FE48 EFLAG=00000202
0040B9AE	ADC      DL, DL                                           EAX=00000008 ECX=77AE3804 EDX=00009EF4 EBX=0040C70E ESP=0018FE40 EBP=0018FF08 ESI=0040C71C EDI=0018FE48 EFLAG=00000283
0040B9B0	ADD      DX, CX                                           EAX=00000008 ECX=77AE3804 EDX=00009EE9 EBX=0040C70E ESP=0018FE40 EBP=0018FF08 ESI=0040C71C EDI=0018FE48 EFLAG=00000283
0040B9B3	BSWAP    DX                                               EAX=00000008 ECX=77AE3804 EDX=0000D6ED EBX=0040C70E ESP=0018FE40 EBP=0018FF08 ESI=0040C71C EDI=0018FE48 EFLAG=00000286
0040B9B6	ADD      BL, AL                                           EAX=00000008 ECX=77AE3804 EDX=00000000 EBX=0040C70E ESP=0018FE40 EBP=0018FF08 ESI=0040C71C EDI=0018FE48 EFLAG=00000286
0040B9B8	AND      EDX, ESP                                         EAX=00000008 ECX=77AE3804 EDX=00000000 EBX=0040C716 ESP=0018FE40 EBP=0018FF08 ESI=0040C71C EDI=0018FE48 EFLAG=00000212
0040B9BA	LEA      ESI, [ESI-0x1]                                   EAX=00000008 ECX=77AE3804 EDX=00000000 EBX=0040C716 ESP=0018FE40 EBP=0018FF08 ESI=0040C71C EDI=0018FE48 EFLAG=00000246
0040B9BD	SHRD     DX, SP, CL                                       EAX=00000008 ECX=77AE3804 EDX=00000000 EBX=0040C716 ESP=0018FE40 EBP=0018FF08 ESI=0040C71B EDI=0018FE48 EFLAG=00000246
0040B9C1	INC      DX                                               EAX=00000008 ECX=77AE3804 EDX=00000000 EBX=0040C716 ESP=0018FE40 EBP=0018FF08 ESI=0040C71B EDI=0018FE48 EFLAG=00000246
0040B9C4	SBB      EDX, EDX                                         EAX=00000008 ECX=77AE3804 EDX=00000001 EBX=0040C716 ESP=0018FE40 EBP=0018FF08 ESI=0040C71B EDI=0018FE48 EFLAG=00000202
0040B9C6	ADD      DX, 0x9dea                                       EAX=00000008 ECX=77AE3804 EDX=00000000 EBX=0040C716 ESP=0018FE40 EBP=0018FF08 ESI=0040C71B EDI=0018FE48 EFLAG=00000246
0040B9CB	MOV      EDX, [EBP+0x0]                                   EAX=00000008 ECX=77AE3804 EDX=00009DEA EBX=0040C716 ESP=0018FE40 EBP=0018FF08 ESI=0040C71B EDI=0018FE48 EFLAG=00000282
0040B9CE	PUSHA                                                     EAX=00000008 ECX=77AE3804 EDX=00000000 EBX=0040C716 ESP=0018FE40 EBP=0018FF08 ESI=0040C71B EDI=0018FE48 EFLAG=00000282
0040B9CF	STC                                                       EAX=00000008 ECX=77AE3804 EDX=00000000 EBX=0040C716 ESP=0018FE20 EBP=0018FF08 ESI=0040C71B EDI=0018FE48 EFLAG=00000282
0040B9D0	CALL     0x40c120                                         EAX=00000008 ECX=77AE3804 EDX=00000000 EBX=0040C716 ESP=0018FE20 EBP=0018FF08 ESI=0040C71B EDI=0018FE48 EFLAG=00000283
0040B3B2	ADD      EBP, 0x4                                         EAX=00000008 ECX=77AE3804 EDX=00000000 EBX=0040C716 ESP=0018FE1C EBP=0018FF08 ESI=0040C71B EDI=0018FE48 EFLAG=00000283
0040B3B5	CALL     0x40c167                                         EAX=00000008 ECX=77AE3804 EDX=00000000 EBX=0040C716 ESP=0018FE1C EBP=0018FF0C ESI=0040C71B EDI=0018FE48 EFLAG=00000206
0040C167	MOV      [EAX+EDI], EDX                                   EAX=00000008 ECX=77AE3804 EDX=00000000 EBX=0040C716 ESP=0018FE18 EBP=0018FF0C ESI=0040C71B EDI=0018FE48 EFLAG=00000206
0040C16A	MOV      WORD [ESP+0x4], 0x4a62                           EAX=00000008 ECX=77AE3804 EDX=00000000 EBX=0040C716 ESP=0018FE18 EBP=0018FF0C ESI=0040C71B EDI=0018FE48 EFLAG=00000206
0040C171	MOV      [ESP], DH                                        EAX=00000008 ECX=77AE3804 EDX=00000000 EBX=0040C716 ESP=0018FE18 EBP=0018FF0C ESI=0040C71B EDI=0018FE48 EFLAG=00000206
0040C174	PUSHF                                                     EAX=00000008 ECX=77AE3804 EDX=00000000 EBX=0040C716 ESP=0018FE18 EBP=0018FF0C ESI=0040C71B EDI=0018FE48 EFLAG=00000206
0040C175	PUSHF                                                     EAX=00000008 ECX=77AE3804 EDX=00000000 EBX=0040C716 ESP=0018FE14 EBP=0018FF0C ESI=0040C71B EDI=0018FE48 EFLAG=00000206
0040C176	LEA      ESP, [ESP+0x38]                                  EAX=00000008 ECX=77AE3804 EDX=00000000 EBX=0040C716 ESP=0018FE10 EBP=0018FF0C ESI=0040C71B EDI=0018FE48 EFLAG=00000206
0040BEFD	BSWAP    DX                                               EAX=00000008 ECX=77AE3804 EDX=00000000 EBX=0040C716 ESP=0018FE48 EBP=0018FF0C ESI=0040C71B EDI=0018FE48 EFLAG=00000206
0040BF00	RCL      DL, CL                                           EAX=00000008 ECX=77AE3804 EDX=00000000 EBX=0040C716 ESP=0018FE48 EBP=0018FF0C ESI=0040C71B EDI=0018FE48 EFLAG=00000206
0040BF02	PUSHA                                                     EAX=00000008 ECX=77AE3804 EDX=00000000 EBX=0040C716 ESP=0018FE48 EBP=0018FF0C ESI=0040C71B EDI=0018FE48 EFLAG=00000206
0040BF03	AND      EDX, 0xfdc85d80                                  EAX=00000008 ECX=77AE3804 EDX=00000000 EBX=0040C716 ESP=0018FE28 EBP=0018FF0C ESI=0040C71B EDI=0018FE48 EFLAG=00000206
0040BF09	MOV      AL, [ESI-0x1]                                    EAX=00000008 ECX=77AE3804 EDX=00000000 EBX=0040C716 ESP=0018FE28 EBP=0018FF0C ESI=0040C71B EDI=0018FE48 EFLAG=00000246
0040BF0C	DEC      DH                                               EAX=00000073 ECX=77AE3804 EDX=00000000 EBX=0040C716 ESP=0018FE28 EBP=0018FF0C ESI=0040C71B EDI=0018FE48 EFLAG=00000246
0040BF0E	SUB      AL, BL                                           EAX=00000073 ECX=77AE3804 EDX=0000FF00 EBX=0040C716 ESP=0018FE28 EBP=0018FF0C ESI=0040C71B EDI=0018FE48 EFLAG=00000296
0040BF10	PUSHF                                                     EAX=0000005D ECX=77AE3804 EDX=0000FF00 EBX=0040C716 ESP=0018FE28 EBP=0018FF0C ESI=0040C71B EDI=0018FE48 EFLAG=00000212
0040BF11	BTC      DX, 0x4                                          EAX=0000005D ECX=77AE3804 EDX=0000FF00 EBX=0040C716 ESP=0018FE24 EBP=0018FF0C ESI=0040C71B EDI=0018FE48 EFLAG=00000212
0040BF16	PUSH     ESP                                              EAX=0000005D ECX=77AE3804 EDX=0000FF10 EBX=0040C716 ESP=0018FE24 EBP=0018FF0C ESI=0040C71B EDI=0018FE48 EFLAG=00000212
0040BF17	MOVZX    DX, AL                                           EAX=0000005D ECX=77AE3804 EDX=0000FF10 EBX=0040C716 ESP=0018FE20 EBP=0018FF0C ESI=0040C71B EDI=0018FE48 EFLAG=00000212
0040BF1B	ROR      AL, 0x7                                          EAX=0000005D ECX=77AE3804 EDX=0000005D EBX=0040C716 ESP=0018FE20 EBP=0018FF0C ESI=0040C71B EDI=0018FE48 EFLAG=00000212
0040BF1E	ROL      DH, 0x3                                          EAX=000000BA ECX=77AE3804 EDX=0000005D EBX=0040C716 ESP=0018FE20 EBP=0018FF0C ESI=0040C71B EDI=0018FE48 EFLAG=00000A13
0040BF21	SUB      AL, 0x30                                         EAX=000000BA ECX=77AE3804 EDX=0000005D EBX=0040C716 ESP=0018FE20 EBP=0018FF0C ESI=0040C71B EDI=0018FE48 EFLAG=00000212
0040BF23	SHR      DX, 0x9                                          EAX=0000008A ECX=77AE3804 EDX=0000005D EBX=0040C716 ESP=0018FE20 EBP=0018FF0C ESI=0040C71B EDI=0018FE48 EFLAG=00000282
0040BF27	XOR      AL, 0xce                                         EAX=0000008A ECX=77AE3804 EDX=00000000 EBX=0040C716 ESP=0018FE20 EBP=0018FF0C ESI=0040C71B EDI=0018FE48 EFLAG=00000246
0040BF29	ADC      DL, 0xdb                                         EAX=00000044 ECX=77AE3804 EDX=00000000 EBX=0040C716 ESP=0018FE20 EBP=0018FF0C ESI=0040C71B EDI=0018FE48 EFLAG=00000206
0040BF2C	BT       EBX, EDI                                         EAX=00000044 ECX=77AE3804 EDX=000000DB EBX=0040C716 ESP=0018FE20 EBP=0018FF0C ESI=0040C71B EDI=0018FE48 EFLAG=00000286
0040BF2F	SETL     DH                                               EAX=00000044 ECX=77AE3804 EDX=000000DB EBX=0040C716 ESP=0018FE20 EBP=0018FF0C ESI=0040C71B EDI=0018FE48 EFLAG=00000287
0040BF32	SUB      BL, AL                                           EAX=00000044 ECX=77AE3804 EDX=000001DB EBX=0040C716 ESP=0018FE20 EBP=0018FF0C ESI=0040C71B EDI=0018FE48 EFLAG=00000287
0040BF34	STC                                                       EAX=00000044 ECX=77AE3804 EDX=000001DB EBX=0040C7D2 ESP=0018FE20 EBP=0018FF0C ESI=0040C71B EDI=0018FE48 EFLAG=00000287
0040BF35	MOVZX    EAX, AL                                          EAX=00000044 ECX=77AE3804 EDX=000001DB EBX=0040C7D2 ESP=0018FE20 EBP=0018FF0C ESI=0040C71B EDI=0018FE48 EFLAG=00000287
0040BF38	NOT      EDX                                              EAX=00000044 ECX=77AE3804 EDX=000001DB EBX=0040C7D2 ESP=0018FE20 EBP=0018FF0C ESI=0040C71B EDI=0018FE48 EFLAG=00000287
0040BF3A	BSF      EDX, EDI                                         EAX=00000044 ECX=77AE3804 EDX=FFFFFE24 EBX=0040C7D2 ESP=0018FE20 EBP=0018FF0C ESI=0040C71B EDI=0018FE48 EFLAG=00000287
0040BF3E	CMC                                                       EAX=00000044 ECX=77AE3804 EDX=FFFF0003 EBX=0040C7D2 ESP=0018FE20 EBP=0018FF0C ESI=0040C71B EDI=0018FE48 EFLAG=00000206
0040BF3F	SAL      DH, CL                                           EAX=00000044 ECX=77AE3804 EDX=FFFF0003 EBX=0040C7D2 ESP=0018FE20 EBP=0018FF0C ESI=0040C71B EDI=0018FE48 EFLAG=00000207
0040BF41	MOV      EDX, [EAX*4+0x40a51f]                            EAX=00000044 ECX=77AE3804 EDX=FFFF0003 EBX=0040C7D2 ESP=0018FE20 EBP=0018FF0C ESI=0040C71B EDI=0018FE48 EFLAG=00000246
0040BF48	TEST     EDX, 0xe75c2a09                                  EAX=00000044 ECX=77AE3804 EDX=2BFA6557 EBX=0040C7D2 ESP=0018FE20 EBP=0018FF0C ESI=0040C71B EDI=0018FE48 EFLAG=00000246
0040BF4E	TEST     BL, DL                                           EAX=00000044 ECX=77AE3804 EDX=2BFA6557 EBX=0040C7D2 ESP=0018FE20 EBP=0018FF0C ESI=0040C71B EDI=0018FE48 EFLAG=00000202
0040BF50	SUB      EDX, 0x2bb9b71b                                  EAX=00000044 ECX=77AE3804 EDX=2BFA6557 EBX=0040C7D2 ESP=0018FE20 EBP=0018FF0C ESI=0040C71B EDI=0018FE48 EFLAG=00000202
0040BF56	CALL     0x40bd78                                         EAX=00000044 ECX=77AE3804 EDX=0040AE3C EBX=0040C7D2 ESP=0018FE20 EBP=0018FF0C ESI=0040C71B EDI=0018FE48 EFLAG=00000216
0040BD78	PUSH     EDX                                              EAX=00000044 ECX=77AE3804 EDX=0040AE3C EBX=0040C7D2 ESP=0018FE1C EBP=0018FF0C ESI=0040C71B EDI=0018FE48 EFLAG=00000216
0040BD79	DEC      ESI                                              EAX=00000044 ECX=77AE3804 EDX=0040AE3C EBX=0040C7D2 ESP=0018FE18 EBP=0018FF0C ESI=0040C71B EDI=0018FE48 EFLAG=00000216
0040BD7A	PUSHF                                                     EAX=00000044 ECX=77AE3804 EDX=0040AE3C EBX=0040C7D2 ESP=0018FE18 EBP=0018FF0C ESI=0040C71A EDI=0018FE48 EFLAG=00000202
0040A91F	MOV      [ESP], DH                                        EAX=00000044 ECX=77AE3804 EDX=0040AE3C EBX=0040C7D2 ESP=0018FE14 EBP=0018FF0C ESI=0040C71A EDI=0018FE48 EFLAG=00000202
0040A922	MOV      [ESP+0x30], EDX                                  EAX=00000044 ECX=77AE3804 EDX=0040AE3C EBX=0040C7D2 ESP=0018FE14 EBP=0018FF0C ESI=0040C71A EDI=0018FE48 EFLAG=00000202
0040A926	MOV      [ESP], AL                                        EAX=00000044 ECX=77AE3804 EDX=0040AE3C EBX=0040C7D2 ESP=0018FE14 EBP=0018FF0C ESI=0040C71A EDI=0018FE48 EFLAG=00000202
0040A929	PUSH     DWORD [ESP+0x30]                                 EAX=00000044 ECX=77AE3804 EDX=0040AE3C EBX=0040C7D2 ESP=0018FE14 EBP=0018FF0C ESI=0040C71A EDI=0018FE48 EFLAG=00000202
0040A92D	RET      0x34                                             EAX=00000044 ECX=77AE3804 EDX=0040AE3C EBX=0040C7D2 ESP=0018FE10 EBP=0018FF0C ESI=0040C71A EDI=0018FE48 EFLAG=00000202
0040AE3C	SAR      AL, CL                                           EAX=00000044 ECX=77AE3804 EDX=0040AE3C EBX=0040C7D2 ESP=0018FE48 EBP=0018FF0C ESI=0040C71A EDI=0018FE48 EFLAG=00000202
0040AE3E	MOV      EAX, [ESI-0x4]                                   EAX=00000004 ECX=77AE3804 EDX=0040AE3C EBX=0040C7D2 ESP=0018FE48 EBP=0018FF0C ESI=0040C71A EDI=0018FE48 EFLAG=00000202
0040AE41	PUSHA                                                     EAX=C16EA861 ECX=77AE3804 EDX=0040AE3C EBX=0040C7D2 ESP=0018FE48 EBP=0018FF0C ESI=0040C71A EDI=0018FE48 EFLAG=00000202
0040B3CF	PUSHA                                                     EAX=C16EA861 ECX=77AE3804 EDX=0040AE3C EBX=0040C7D2 ESP=0018FE28 EBP=0018FF0C ESI=0040C71A EDI=0018FE48 EFLAG=00000202
0040B3D0	CALL     0x40c0c5                                         EAX=C16EA861 ECX=77AE3804 EDX=0040AE3C EBX=0040C7D2 ESP=0018FE08 EBP=0018FF0C ESI=0040C71A EDI=0018FE48 EFLAG=00000202
0040C0C5	BSWAP    EAX                                              EAX=C16EA861 ECX=77AE3804 EDX=0040AE3C EBX=0040C7D2 ESP=0018FE04 EBP=0018FF0C ESI=0040C71A EDI=0018FE48 EFLAG=00000202
0040C0C7	TEST     AL, DL                                           EAX=61A86EC1 ECX=77AE3804 EDX=0040AE3C EBX=0040C7D2 ESP=0018FE04 EBP=0018FF0C ESI=0040C71A EDI=0018FE48 EFLAG=00000202
0040C0C9	TEST     AL, DH                                           EAX=61A86EC1 ECX=77AE3804 EDX=0040AE3C EBX=0040C7D2 ESP=0018FE04 EBP=0018FF0C ESI=0040C71A EDI=0018FE48 EFLAG=00000246
0040C0CB	XOR      EAX, EBX                                         EAX=61A86EC1 ECX=77AE3804 EDX=0040AE3C EBX=0040C7D2 ESP=0018FE04 EBP=0018FF0C ESI=0040C71A EDI=0018FE48 EFLAG=00000282
0040C0CD	TEST     DH, AL                                           EAX=61E8A913 ECX=77AE3804 EDX=0040AE3C EBX=0040C7D2 ESP=0018FE04 EBP=0018FF0C ESI=0040C71A EDI=0018FE48 EFLAG=00000202
0040C0CF	STC                                                       EAX=61E8A913 ECX=77AE3804 EDX=0040AE3C EBX=0040C7D2 ESP=0018FE04 EBP=0018FF0C ESI=0040C71A EDI=0018FE48 EFLAG=00000202
0040C0D0	NOT      EAX                                              EAX=61E8A913 ECX=77AE3804 EDX=0040AE3C EBX=0040C7D2 ESP=0018FE04 EBP=0018FF0C ESI=0040C71A EDI=0018FE48 EFLAG=00000203
0040C0D2	PUSHF                                                     EAX=9E1756EC ECX=77AE3804 EDX=0040AE3C EBX=0040C7D2 ESP=0018FE04 EBP=0018FF0C ESI=0040C71A EDI=0018FE48 EFLAG=00000203
0040C0D3	TEST     DL, CL                                           EAX=9E1756EC ECX=77AE3804 EDX=0040AE3C EBX=0040C7D2 ESP=0018FE00 EBP=0018FF0C ESI=0040C71A EDI=0018FE48 EFLAG=00000203
0040C0D5	CMC                                                       EAX=9E1756EC ECX=77AE3804 EDX=0040AE3C EBX=0040C7D2 ESP=0018FE00 EBP=0018FF0C ESI=0040C71A EDI=0018FE48 EFLAG=00000202
0040C0D6	SUB      EAX, 0x4e8d70e8                                  EAX=9E1756EC ECX=77AE3804 EDX=0040AE3C EBX=0040C7D2 ESP=0018FE00 EBP=0018FF0C ESI=0040C71A EDI=0018FE48 EFLAG=00000203
0040C0DB	CALL     0x40c358                                         EAX=4F89E604 ECX=77AE3804 EDX=0040AE3C EBX=0040C7D2 ESP=0018FE00 EBP=0018FF0C ESI=0040C71A EDI=0018FE48 EFLAG=00000A02
0040C358	ROL      EAX, 0x1e                                        EAX=4F89E604 ECX=77AE3804 EDX=0040AE3C EBX=0040C7D2 ESP=0018FDFC EBP=0018FF0C ESI=0040C71A EDI=0018FE48 EFLAG=00000A02
0040B4FA	CALL     0x40c30e                                         EAX=13E27981 ECX=77AE3804 EDX=0040AE3C EBX=0040C7D2 ESP=0018FDFC EBP=0018FF0C ESI=0040C71A EDI=0018FE48 EFLAG=00000A03
0040C30E	STC                                                       EAX=13E27981 ECX=77AE3804 EDX=0040AE3C EBX=0040C7D2 ESP=0018FDF8 EBP=0018FF0C ESI=0040C71A EDI=0018FE48 EFLAG=00000A03
0040C30F	ADD      ESI, -0x4                                        EAX=13E27981 ECX=77AE3804 EDX=0040AE3C EBX=0040C7D2 ESP=0018FDF8 EBP=0018FF0C ESI=0040C71A EDI=0018FE48 EFLAG=00000A03
0040C312	STC                                                       EAX=13E27981 ECX=77AE3804 EDX=0040AE3C EBX=0040C7D2 ESP=0018FDF8 EBP=0018FF0C ESI=0040C716 EDI=0018FE48 EFLAG=00000213
0040C313	XOR      EBX, EAX                                         EAX=13E27981 ECX=77AE3804 EDX=0040AE3C EBX=0040C7D2 ESP=0018FDF8 EBP=0018FF0C ESI=0040C716 EDI=0018FE48 EFLAG=00000213
0040C315	STC                                                       EAX=13E27981 ECX=77AE3804 EDX=0040AE3C EBX=13A2BE53 ESP=0018FDF8 EBP=0018FF0C ESI=0040C716 EDI=0018FE48 EFLAG=00000206
0040C316	CALL     0x40bbd4                                         EAX=13E27981 ECX=77AE3804 EDX=0040AE3C EBX=13A2BE53 ESP=0018FDF8 EBP=0018FF0C ESI=0040C716 EDI=0018FE48 EFLAG=00000207
0040BBD4	CMP      BL, CL                                           EAX=13E27981 ECX=77AE3804 EDX=0040AE3C EBX=13A2BE53 ESP=0018FDF4 EBP=0018FF0C ESI=0040C716 EDI=0018FE48 EFLAG=00000207
0040BBD6	CMP      DH, 0xaa                                         EAX=13E27981 ECX=77AE3804 EDX=0040AE3C EBX=13A2BE53 ESP=0018FDF4 EBP=0018FF0C ESI=0040C716 EDI=0018FE48 EFLAG=00000212
0040BBD9	SUB      EBP, 0x4                                         EAX=13E27981 ECX=77AE3804 EDX=0040AE3C EBX=13A2BE53 ESP=0018FDF4 EBP=0018FF0C ESI=0040C716 EDI=0018FE48 EFLAG=00000202
0040BBDC	CALL     0x40b70a                                         EAX=13E27981 ECX=77AE3804 EDX=0040AE3C EBX=13A2BE53 ESP=0018FDF4 EBP=0018FF08 ESI=0040C716 EDI=0018FE48 EFLAG=00000202
0040B449	MOV      [ESP+0xc], CH                                    EAX=13E27981 ECX=77AE3804 EDX=0040AE3C EBX=13A2BE53 ESP=0018FDF0 EBP=0018FF08 ESI=0040C716 EDI=0018FE48 EFLAG=00000202
0040B44D	MOV      [EBP+0x0], EAX                                   EAX=13E27981 ECX=77AE3804 EDX=0040AE3C EBX=13A2BE53 ESP=0018FDF0 EBP=0018FF08 ESI=0040C716 EDI=0018FE48 EFLAG=00000202
0040B450	MOV      BYTE [ESP], 0x39                                 EAX=13E27981 ECX=77AE3804 EDX=0040AE3C EBX=13A2BE53 ESP=0018FDF0 EBP=0018FF08 ESI=0040C716 EDI=0018FE48 EFLAG=00000202
0040B454	LEA      ESP, [ESP+0x58]                                  EAX=13E27981 ECX=77AE3804 EDX=0040AE3C EBX=13A2BE53 ESP=0018FDF0 EBP=0018FF08 ESI=0040C716 EDI=0018FE48 EFLAG=00000202
0040C360	TEST     DH, 0x76                                         EAX=13E27981 ECX=77AE3804 EDX=0040AE3C EBX=13A2BE53 ESP=0018FE48 EBP=0018FF08 ESI=0040C716 EDI=0018FE48 EFLAG=00000202
0040C363	LEA      EAX, [EDI+0x50]                                  EAX=13E27981 ECX=77AE3804 EDX=0040AE3C EBX=13A2BE53 ESP=0018FE48 EBP=0018FF08 ESI=0040C716 EDI=0018FE48 EFLAG=00000202
0040C366	PUSH     DWORD 0xa76b4735                                 EAX=0018FE98 ECX=77AE3804 EDX=0040AE3C EBX=13A2BE53 ESP=0018FE48 EBP=0018FF08 ESI=0040C716 EDI=0018FE48 EFLAG=00000202
0040C36B	STC                                                       EAX=0018FE98 ECX=77AE3804 EDX=0040AE3C EBX=13A2BE53 ESP=0018FE44 EBP=0018FF08 ESI=0040C716 EDI=0018FE48 EFLAG=00000202
0040C36C	CMP      EBP, EAX                                         EAX=0018FE98 ECX=77AE3804 EDX=0040AE3C EBX=13A2BE53 ESP=0018FE44 EBP=0018FF08 ESI=0040C716 EDI=0018FE48 EFLAG=00000203
0040C36E	PUSH     DWORD 0xbe8fd443                                 EAX=0018FE98 ECX=77AE3804 EDX=0040AE3C EBX=13A2BE53 ESP=0018FE44 EBP=0018FF08 ESI=0040C716 EDI=0018FE48 EFLAG=00000202
0040C373	LEA      ESP, [ESP+0x8]                                   EAX=0018FE98 ECX=77AE3804 EDX=0040AE3C EBX=13A2BE53 ESP=0018FE40 EBP=0018FF08 ESI=0040C716 EDI=0018FE48 EFLAG=00000202
0040C377	JA       0x40befd                                         EAX=0018FE98 ECX=77AE3804 EDX=0040AE3C EBX=13A2BE53 ESP=0018FE48 EBP=0018FF08 ESI=0040C716 EDI=0018FE48 EFLAG=00000202
0040BEFD	BSWAP    DX                                               EAX=0018FE98 ECX=77AE3804 EDX=0040AE3C EBX=13A2BE53 ESP=0018FE48 EBP=0018FF08 ESI=0040C716 EDI=0018FE48 EFLAG=00000202
0040BF00	RCL      DL, CL                                           EAX=0018FE98 ECX=77AE3804 EDX=00400000 EBX=13A2BE53 ESP=0018FE48 EBP=0018FF08 ESI=0040C716 EDI=0018FE48 EFLAG=00000202
0040BF02	PUSHA                                                     EAX=0018FE98 ECX=77AE3804 EDX=00400000 EBX=13A2BE53 ESP=0018FE48 EBP=0018FF08 ESI=0040C716 EDI=0018FE48 EFLAG=00000202
0040BF03	AND      EDX, 0xfdc85d80                                  EAX=0018FE98 ECX=77AE3804 EDX=00400000 EBX=13A2BE53 ESP=0018FE28 EBP=0018FF08 ESI=0040C716 EDI=0018FE48 EFLAG=00000202
0040BF09	MOV      AL, [ESI-0x1]                                    EAX=0018FE98 ECX=77AE3804 EDX=00400000 EBX=13A2BE53 ESP=0018FE28 EBP=0018FF08 ESI=0040C716 EDI=0018FE48 EFLAG=00000206
0040BF0C	DEC      DH                                               EAX=0018FE4D ECX=77AE3804 EDX=00400000 EBX=13A2BE53 ESP=0018FE28 EBP=0018FF08 ESI=0040C716 EDI=0018FE48 EFLAG=00000206
0040BF0E	SUB      AL, BL                                           EAX=0018FE4D ECX=77AE3804 EDX=0040FF00 EBX=13A2BE53 ESP=0018FE28 EBP=0018FF08 ESI=0040C716 EDI=0018FE48 EFLAG=00000296
0040BF10	PUSHF                                                     EAX=0018FEFA ECX=77AE3804 EDX=0040FF00 EBX=13A2BE53 ESP=0018FE28 EBP=0018FF08 ESI=0040C716 EDI=0018FE48 EFLAG=00000287
0040BF11	BTC      DX, 0x4                                          EAX=0018FEFA ECX=77AE3804 EDX=0040FF00 EBX=13A2BE53 ESP=0018FE24 EBP=0018FF08 ESI=0040C716 EDI=0018FE48 EFLAG=00000287
0040BF16	PUSH     ESP                                              EAX=0018FEFA ECX=77AE3804 EDX=0040FF10 EBX=13A2BE53 ESP=0018FE24 EBP=0018FF08 ESI=0040C716 EDI=0018FE48 EFLAG=00000286
0040BF17	MOVZX    DX, AL                                           EAX=0018FEFA ECX=77AE3804 EDX=0040FF10 EBX=13A2BE53 ESP=0018FE20 EBP=0018FF08 ESI=0040C716 EDI=0018FE48 EFLAG=00000286
0040BF1B	ROR      AL, 0x7                                          EAX=0018FEFA ECX=77AE3804 EDX=004000FA EBX=13A2BE53 ESP=0018FE20 EBP=0018FF08 ESI=0040C716 EDI=0018FE48 EFLAG=00000286
0040BF1E	ROL      DH, 0x3                                          EAX=0018FEF5 ECX=77AE3804 EDX=004000FA EBX=13A2BE53 ESP=0018FE20 EBP=0018FF08 ESI=0040C716 EDI=0018FE48 EFLAG=00000287
0040BF21	SUB      AL, 0x30                                         EAX=0018FEF5 ECX=77AE3804 EDX=004000FA EBX=13A2BE53 ESP=0018FE20 EBP=0018FF08 ESI=0040C716 EDI=0018FE48 EFLAG=00000286
0040BF23	SHR      DX, 0x9                                          EAX=0018FEC5 ECX=77AE3804 EDX=004000FA EBX=13A2BE53 ESP=0018FE20 EBP=0018FF08 ESI=0040C716 EDI=0018FE48 EFLAG=00000286
0040BF27	XOR      AL, 0xce                                         EAX=0018FEC5 ECX=77AE3804 EDX=00400000 EBX=13A2BE53 ESP=0018FE20 EBP=0018FF08 ESI=0040C716 EDI=0018FE48 EFLAG=00000246
0040BF29	ADC      DL, 0xdb                                         EAX=0018FE0B ECX=77AE3804 EDX=00400000 EBX=13A2BE53 ESP=0018FE20 EBP=0018FF08 ESI=0040C716 EDI=0018FE48 EFLAG=00000202
0040BF2C	BT       EBX, EDI                                         EAX=0018FE0B ECX=77AE3804 EDX=004000DB EBX=13A2BE53 ESP=0018FE20 EBP=0018FF08 ESI=0040C716 EDI=0018FE48 EFLAG=00000286
0040BF2F	SETL     DH                                               EAX=0018FE0B ECX=77AE3804 EDX=004000DB EBX=13A2BE53 ESP=0018FE20 EBP=0018FF08 ESI=0040C716 EDI=0018FE48 EFLAG=00000286
0040BF32	SUB      BL, AL                                           EAX=0018FE0B ECX=77AE3804 EDX=004001DB EBX=13A2BE53 ESP=0018FE20 EBP=0018FF08 ESI=0040C716 EDI=0018FE48 EFLAG=00000286
0040BF34	STC                                                       EAX=0018FE0B ECX=77AE3804 EDX=004001DB EBX=13A2BE48 ESP=0018FE20 EBP=0018FF08 ESI=0040C716 EDI=0018FE48 EFLAG=00000216
0040BF35	MOVZX    EAX, AL                                          EAX=0018FE0B ECX=77AE3804 EDX=004001DB EBX=13A2BE48 ESP=0018FE20 EBP=0018FF08 ESI=0040C716 EDI=0018FE48 EFLAG=00000217
0040BF38	NOT      EDX                                              EAX=0000000B ECX=77AE3804 EDX=004001DB EBX=13A2BE48 ESP=0018FE20 EBP=0018FF08 ESI=0040C716 EDI=0018FE48 EFLAG=00000217
0040BF3A	BSF      EDX, EDI                                         EAX=0000000B ECX=77AE3804 EDX=FFBFFE24 EBX=13A2BE48 ESP=0018FE20 EBP=0018FF08 ESI=0040C716 EDI=0018FE48 EFLAG=00000217
0040BF3E	CMC                                                       EAX=0000000B ECX=77AE3804 EDX=FFBF0003 EBX=13A2BE48 ESP=0018FE20 EBP=0018FF08 ESI=0040C716 EDI=0018FE48 EFLAG=00000206
0040BF3F	SAL      DH, CL                                           EAX=0000000B ECX=77AE3804 EDX=FFBF0003 EBX=13A2BE48 ESP=0018FE20 EBP=0018FF08 ESI=0040C716 EDI=0018FE48 EFLAG=00000207
0040BF41	MOV      EDX, [EAX*4+0x40a51f]                            EAX=0000000B ECX=77AE3804 EDX=FFBF0003 EBX=13A2BE48 ESP=0018FE20 EBP=0018FF08 ESI=0040C716 EDI=0018FE48 EFLAG=00000246
0040BF48	TEST     EDX, 0xe75c2a09                                  EAX=0000000B ECX=77AE3804 EDX=2BFA61D9 EBX=13A2BE48 ESP=0018FE20 EBP=0018FF08 ESI=0040C716 EDI=0018FE48 EFLAG=00000246
0040BF4E	TEST     BL, DL                                           EAX=0000000B ECX=77AE3804 EDX=2BFA61D9 EBX=13A2BE48 ESP=0018FE20 EBP=0018FF08 ESI=0040C716 EDI=0018FE48 EFLAG=00000206
0040BF50	SUB      EDX, 0x2bb9b71b                                  EAX=0000000B ECX=77AE3804 EDX=2BFA61D9 EBX=13A2BE48 ESP=0018FE20 EBP=0018FF08 ESI=0040C716 EDI=0018FE48 EFLAG=00000206
0040BF56	CALL     0x40bd78                                         EAX=0000000B ECX=77AE3804 EDX=0040AABE EBX=13A2BE48 ESP=0018FE20 EBP=0018FF08 ESI=0040C716 EDI=0018FE48 EFLAG=00000216
0040BD78	PUSH     EDX                                              EAX=0000000B ECX=77AE3804 EDX=0040AABE EBX=13A2BE48 ESP=0018FE1C EBP=0018FF08 ESI=0040C716 EDI=0018FE48 EFLAG=00000216
0040BD79	DEC      ESI                                              EAX=0000000B ECX=77AE3804 EDX=0040AABE EBX=13A2BE48 ESP=0018FE18 EBP=0018FF08 ESI=0040C716 EDI=0018FE48 EFLAG=00000216
0040BD7A	PUSHF                                                     EAX=0000000B ECX=77AE3804 EDX=0040AABE EBX=13A2BE48 ESP=0018FE18 EBP=0018FF08 ESI=0040C715 EDI=0018FE48 EFLAG=00000202
0040A91F	MOV      [ESP], DH                                        EAX=0000000B ECX=77AE3804 EDX=0040AABE EBX=13A2BE48 ESP=0018FE14 EBP=0018FF08 ESI=0040C715 EDI=0018FE48 EFLAG=00000202
0040A922	MOV      [ESP+0x30], EDX                                  EAX=0000000B ECX=77AE3804 EDX=0040AABE EBX=13A2BE48 ESP=0018FE14 EBP=0018FF08 ESI=0040C715 EDI=0018FE48 EFLAG=00000202
0040A926	MOV      [ESP], AL                                        EAX=0000000B ECX=77AE3804 EDX=0040AABE EBX=13A2BE48 ESP=0018FE14 EBP=0018FF08 ESI=0040C715 EDI=0018FE48 EFLAG=00000202
0040A929	PUSH     DWORD [ESP+0x30]                                 EAX=0000000B ECX=77AE3804 EDX=0040AABE EBX=13A2BE48 ESP=0018FE14 EBP=0018FF08 ESI=0040C715 EDI=0018FE48 EFLAG=00000202
0040A92D	RET      0x34                                             EAX=0000000B ECX=77AE3804 EDX=0040AABE EBX=13A2BE48 ESP=0018FE10 EBP=0018FF08 ESI=0040C715 EDI=0018FE48 EFLAG=00000202
0040AABE	BSR      EAX, EBP                                         EAX=0000000B ECX=77AE3804 EDX=0040AABE EBX=13A2BE48 ESP=0018FE48 EBP=0018FF08 ESI=0040C715 EDI=0018FE48 EFLAG=00000202
0040AAC2	MOV      EAX, [EBP+0x0]                                   EAX=0000000F ECX=77AE3804 EDX=0040AABE EBX=13A2BE48 ESP=0018FE48 EBP=0018FF08 ESI=0040C715 EDI=0018FE48 EFLAG=00000206
0040AAC5	CALL     0x40b895                                         EAX=13E27981 ECX=77AE3804 EDX=0040AABE EBX=13A2BE48 ESP=0018FE48 EBP=0018FF08 ESI=0040C715 EDI=0018FE48 EFLAG=00000206
0040B895	ADD      [EBP+0x4], EAX                                   EAX=13E27981 ECX=77AE3804 EDX=0040AABE EBX=13A2BE48 ESP=0018FE44 EBP=0018FF08 ESI=0040C715 EDI=0018FE48 EFLAG=00000206
0040B898	CALL     0x40b608                                         EAX=13E27981 ECX=77AE3804 EDX=0040AABE EBX=13A2BE48 ESP=0018FE44 EBP=0018FF08 ESI=0040C715 EDI=0018FE48 EFLAG=00000206
0040B608	CALL     0x40ac35                                         EAX=13E27981 ECX=77AE3804 EDX=0040AABE EBX=13A2BE48 ESP=0018FE40 EBP=0018FF08 ESI=0040C715 EDI=0018FE48 EFLAG=00000206
0040AC35	PUSHF                                                     EAX=13E27981 ECX=77AE3804 EDX=0040AABE EBX=13A2BE48 ESP=0018FE3C EBP=0018FF08 ESI=0040C715 EDI=0018FE48 EFLAG=00000206
0040AC36	POP      DWORD [ESP+0x8]                                  EAX=13E27981 ECX=77AE3804 EDX=0040AABE EBX=13A2BE48 ESP=0018FE38 EBP=0018FF08 ESI=0040C715 EDI=0018FE48 EFLAG=00000206
0040AC3A	PUSHA                                                     EAX=13E27981 ECX=77AE3804 EDX=0040AABE EBX=13A2BE48 ESP=0018FE3C EBP=0018FF08 ESI=0040C715 EDI=0018FE48 EFLAG=00000206
0040AC3B	PUSH     DWORD [ESP+0x4]                                  EAX=13E27981 ECX=77AE3804 EDX=0040AABE EBX=13A2BE48 ESP=0018FE1C EBP=0018FF08 ESI=0040C715 EDI=0018FE48 EFLAG=00000206
0040AC3F	PUSH     DWORD [ESP+0x2c]                                 EAX=13E27981 ECX=77AE3804 EDX=0040AABE EBX=13A2BE48 ESP=0018FE18 EBP=0018FF08 ESI=0040C715 EDI=0018FE48 EFLAG=00000206
0040AC43	POP      DWORD [EBP+0x0]                                  EAX=13E27981 ECX=77AE3804 EDX=0040AABE EBX=13A2BE48 ESP=0018FE14 EBP=0018FF08 ESI=0040C715 EDI=0018FE48 EFLAG=00000206
0040AC46	MOV      BYTE [ESP+0x4], 0x7f                             EAX=13E27981 ECX=77AE3804 EDX=0040AABE EBX=13A2BE48 ESP=0018FE18 EBP=0018FF08 ESI=0040C715 EDI=0018FE48 EFLAG=00000206
0040AC4B	LEA      ESP, [ESP+0x30]                                  EAX=13E27981 ECX=77AE3804 EDX=0040AABE EBX=13A2BE48 ESP=0018FE18 EBP=0018FF08 ESI=0040C715 EDI=0018FE48 EFLAG=00000206
0040BEFD	BSWAP    DX                                               EAX=13E27981 ECX=77AE3804 EDX=0040AABE EBX=13A2BE48 ESP=0018FE48 EBP=0018FF08 ESI=0040C715 EDI=0018FE48 EFLAG=00000206
0040BF00	RCL      DL, CL                                           EAX=13E27981 ECX=77AE3804 EDX=00400000 EBX=13A2BE48 ESP=0018FE48 EBP=0018FF08 ESI=0040C715 EDI=0018FE48 EFLAG=00000206
0040BF02	PUSHA                                                     EAX=13E27981 ECX=77AE3804 EDX=00400000 EBX=13A2BE48 ESP=0018FE48 EBP=0018FF08 ESI=0040C715 EDI=0018FE48 EFLAG=00000206
0040BF03	AND      EDX, 0xfdc85d80                                  EAX=13E27981 ECX=77AE3804 EDX=00400000 EBX=13A2BE48 ESP=0018FE28 EBP=0018FF08 ESI=0040C715 EDI=0018FE48 EFLAG=00000206
0040BF09	MOV      AL, [ESI-0x1]                                    EAX=13E27981 ECX=77AE3804 EDX=00400000 EBX=13A2BE48 ESP=0018FE28 EBP=0018FF08 ESI=0040C715 EDI=0018FE48 EFLAG=00000206
0040BF0C	DEC      DH                                               EAX=13E27906 ECX=77AE3804 EDX=00400000 EBX=13A2BE48 ESP=0018FE28 EBP=0018FF08 ESI=0040C715 EDI=0018FE48 EFLAG=00000206
0040BF0E	SUB      AL, BL                                           EAX=13E27906 ECX=77AE3804 EDX=0040FF00 EBX=13A2BE48 ESP=0018FE28 EBP=0018FF08 ESI=0040C715 EDI=0018FE48 EFLAG=00000296
0040BF10	PUSHF                                                     EAX=13E279BE ECX=77AE3804 EDX=0040FF00 EBX=13A2BE48 ESP=0018FE28 EBP=0018FF08 ESI=0040C715 EDI=0018FE48 EFLAG=00000297
0040BF11	BTC      DX, 0x4                                          EAX=13E279BE ECX=77AE3804 EDX=0040FF00 EBX=13A2BE48 ESP=0018FE24 EBP=0018FF08 ESI=0040C715 EDI=0018FE48 EFLAG=00000297
0040BF16	PUSH     ESP                                              EAX=13E279BE ECX=77AE3804 EDX=0040FF10 EBX=13A2BE48 ESP=0018FE24 EBP=0018FF08 ESI=0040C715 EDI=0018FE48 EFLAG=00000296
0040BF17	MOVZX    DX, AL                                           EAX=13E279BE ECX=77AE3804 EDX=0040FF10 EBX=13A2BE48 ESP=0018FE20 EBP=0018FF08 ESI=0040C715 EDI=0018FE48 EFLAG=00000296
0040BF1B	ROR      AL, 0x7                                          EAX=13E279BE ECX=77AE3804 EDX=004000BE EBX=13A2BE48 ESP=0018FE20 EBP=0018FF08 ESI=0040C715 EDI=0018FE48 EFLAG=00000296
0040BF1E	ROL      DH, 0x3                                          EAX=13E2797D ECX=77AE3804 EDX=004000BE EBX=13A2BE48 ESP=0018FE20 EBP=0018FF08 ESI=0040C715 EDI=0018FE48 EFLAG=00000A96
0040BF21	SUB      AL, 0x30                                         EAX=13E2797D ECX=77AE3804 EDX=004000BE EBX=13A2BE48 ESP=0018FE20 EBP=0018FF08 ESI=0040C715 EDI=0018FE48 EFLAG=00000296
0040BF23	SHR      DX, 0x9                                          EAX=13E2794D ECX=77AE3804 EDX=004000BE EBX=13A2BE48 ESP=0018FE20 EBP=0018FF08 ESI=0040C715 EDI=0018FE48 EFLAG=00000206
0040BF27	XOR      AL, 0xce                                         EAX=13E2794D ECX=77AE3804 EDX=00400000 EBX=13A2BE48 ESP=0018FE20 EBP=0018FF08 ESI=0040C715 EDI=0018FE48 EFLAG=00000246
0040BF29	ADC      DL, 0xdb                                         EAX=13E27983 ECX=77AE3804 EDX=00400000 EBX=13A2BE48 ESP=0018FE20 EBP=0018FF08 ESI=0040C715 EDI=0018FE48 EFLAG=00000282
0040BF2C	BT       EBX, EDI                                         EAX=13E27983 ECX=77AE3804 EDX=004000DB EBX=13A2BE48 ESP=0018FE20 EBP=0018FF08 ESI=0040C715 EDI=0018FE48 EFLAG=00000286
0040BF2F	SETL     DH                                               EAX=13E27983 ECX=77AE3804 EDX=004000DB EBX=13A2BE48 ESP=0018FE20 EBP=0018FF08 ESI=0040C715 EDI=0018FE48 EFLAG=00000286
0040BF32	SUB      BL, AL                                           EAX=13E27983 ECX=77AE3804 EDX=004001DB EBX=13A2BE48 ESP=0018FE20 EBP=0018FF08 ESI=0040C715 EDI=0018FE48 EFLAG=00000286
0040BF34	STC                                                       EAX=13E27983 ECX=77AE3804 EDX=004001DB EBX=13A2BEC5 ESP=0018FE20 EBP=0018FF08 ESI=0040C715 EDI=0018FE48 EFLAG=00000A87
0040BF35	MOVZX    EAX, AL                                          EAX=13E27983 ECX=77AE3804 EDX=004001DB EBX=13A2BEC5 ESP=0018FE20 EBP=0018FF08 ESI=0040C715 EDI=0018FE48 EFLAG=00000A87
0040BF38	NOT      EDX                                              EAX=00000083 ECX=77AE3804 EDX=004001DB EBX=13A2BEC5 ESP=0018FE20 EBP=0018FF08 ESI=0040C715 EDI=0018FE48 EFLAG=00000A87
0040BF3A	BSF      EDX, EDI                                         EAX=00000083 ECX=77AE3804 EDX=FFBFFE24 EBX=13A2BEC5 ESP=0018FE20 EBP=0018FF08 ESI=0040C715 EDI=0018FE48 EFLAG=00000A87
0040BF3E	CMC                                                       EAX=00000083 ECX=77AE3804 EDX=FFBF0003 EBX=13A2BEC5 ESP=0018FE20 EBP=0018FF08 ESI=0040C715 EDI=0018FE48 EFLAG=00000206
0040BF3F	SAL      DH, CL                                           EAX=00000083 ECX=77AE3804 EDX=FFBF0003 EBX=13A2BEC5 ESP=0018FE20 EBP=0018FF08 ESI=0040C715 EDI=0018FE48 EFLAG=00000207
0040BF41	MOV      EDX, [EAX*4+0x40a51f]                            EAX=00000083 ECX=77AE3804 EDX=FFBF0003 EBX=13A2BEC5 ESP=0018FE20 EBP=0018FF08 ESI=0040C715 EDI=0018FE48 EFLAG=00000246
0040BF48	TEST     EDX, 0xe75c2a09                                  EAX=00000083 ECX=77AE3804 EDX=2BFA6887 EBX=13A2BEC5 ESP=0018FE20 EBP=0018FF08 ESI=0040C715 EDI=0018FE48 EFLAG=00000246
0040BF4E	TEST     BL, DL                                           EAX=00000083 ECX=77AE3804 EDX=2BFA6887 EBX=13A2BEC5 ESP=0018FE20 EBP=0018FF08 ESI=0040C715 EDI=0018FE48 EFLAG=00000202
0040BF50	SUB      EDX, 0x2bb9b71b                                  EAX=00000083 ECX=77AE3804 EDX=2BFA6887 EBX=13A2BEC5 ESP=0018FE20 EBP=0018FF08 ESI=0040C715 EDI=0018FE48 EFLAG=00000282
0040BF56	CALL     0x40bd78                                         EAX=00000083 ECX=77AE3804 EDX=0040B16C EBX=13A2BEC5 ESP=0018FE20 EBP=0018FF08 ESI=0040C715 EDI=0018FE48 EFLAG=00000216
0040BD78	PUSH     EDX                                              EAX=00000083 ECX=77AE3804 EDX=0040B16C EBX=13A2BEC5 ESP=0018FE1C EBP=0018FF08 ESI=0040C715 EDI=0018FE48 EFLAG=00000216
0040BD79	DEC      ESI                                              EAX=00000083 ECX=77AE3804 EDX=0040B16C EBX=13A2BEC5 ESP=0018FE18 EBP=0018FF08 ESI=0040C715 EDI=0018FE48 EFLAG=00000216
0040BD7A	PUSHF                                                     EAX=00000083 ECX=77AE3804 EDX=0040B16C EBX=13A2BEC5 ESP=0018FE18 EBP=0018FF08 ESI=0040C714 EDI=0018FE48 EFLAG=00000206
0040A91F	MOV      [ESP], DH                                        EAX=00000083 ECX=77AE3804 EDX=0040B16C EBX=13A2BEC5 ESP=0018FE14 EBP=0018FF08 ESI=0040C714 EDI=0018FE48 EFLAG=00000206
0040A922	MOV      [ESP+0x30], EDX                                  EAX=00000083 ECX=77AE3804 EDX=0040B16C EBX=13A2BEC5 ESP=0018FE14 EBP=0018FF08 ESI=0040C714 EDI=0018FE48 EFLAG=00000206
0040A926	MOV      [ESP], AL                                        EAX=00000083 ECX=77AE3804 EDX=0040B16C EBX=13A2BEC5 ESP=0018FE14 EBP=0018FF08 ESI=0040C714 EDI=0018FE48 EFLAG=00000206
0040A929	PUSH     DWORD [ESP+0x30]                                 EAX=00000083 ECX=77AE3804 EDX=0040B16C EBX=13A2BEC5 ESP=0018FE14 EBP=0018FF08 ESI=0040C714 EDI=0018FE48 EFLAG=00000206
0040A92D	RET      0x34                                             EAX=00000083 ECX=77AE3804 EDX=0040B16C EBX=13A2BEC5 ESP=0018FE10 EBP=0018FF08 ESI=0040C714 EDI=0018FE48 EFLAG=00000206
0040B16C	CALL     0x40bb09                                         EAX=00000083 ECX=77AE3804 EDX=0040B16C EBX=13A2BEC5 ESP=0018FE48 EBP=0018FF08 ESI=0040C714 EDI=0018FE48 EFLAG=00000206
0040BB09	SUB      DL, AH                                           EAX=00000083 ECX=77AE3804 EDX=0040B16C EBX=13A2BEC5 ESP=0018FE44 EBP=0018FF08 ESI=0040C714 EDI=0018FE48 EFLAG=00000206
0040BB0B	MOV      AL, [ESI-0x1]                                    EAX=00000083 ECX=77AE3804 EDX=0040B16C EBX=13A2BEC5 ESP=0018FE44 EBP=0018FF08 ESI=0040C714 EDI=0018FE48 EFLAG=00000206
0040BB0E	LEA      ESP, [ESP+0x4]                                   EAX=000000FC ECX=77AE3804 EDX=0040B16C EBX=13A2BEC5 ESP=0018FE44 EBP=0018FF08 ESI=0040C714 EDI=0018FE48 EFLAG=00000206
0040BB12	JNP      0x40bd9a                                         EAX=000000FC ECX=77AE3804 EDX=0040B16C EBX=13A2BEC5 ESP=0018FE48 EBP=0018FF08 ESI=0040C714 EDI=0018FE48 EFLAG=00000206
0040BB18	BSR      EDX, ECX                                         EAX=000000FC ECX=77AE3804 EDX=0040B16C EBX=13A2BEC5 ESP=0018FE48 EBP=0018FF08 ESI=0040C714 EDI=0018FE48 EFLAG=00000206
0040BB1B	ADD      AL, BL                                           EAX=000000FC ECX=77AE3804 EDX=0000001E EBX=13A2BEC5 ESP=0018FE48 EBP=0018FF08 ESI=0040C714 EDI=0018FE48 EFLAG=00000206
0040BB1D	PUSH     EDX                                              EAX=000000C1 ECX=77AE3804 EDX=0000001E EBX=13A2BEC5 ESP=0018FE48 EBP=0018FF08 ESI=0040C714 EDI=0018FE48 EFLAG=00000293
0040BB1E	DEC      AL                                               EAX=000000C1 ECX=77AE3804 EDX=0000001E EBX=13A2BEC5 ESP=0018FE44 EBP=0018FF08 ESI=0040C714 EDI=0018FE48 EFLAG=00000293
0040BB20	DEC      DH                                               EAX=000000C0 ECX=77AE3804 EDX=0000001E EBX=13A2BEC5 ESP=0018FE44 EBP=0018FF08 ESI=0040C714 EDI=0018FE48 EFLAG=00000287
0040BB22	NEG      AL                                               EAX=000000C0 ECX=77AE3804 EDX=0000FF1E EBX=13A2BEC5 ESP=0018FE44 EBP=0018FF08 ESI=0040C714 EDI=0018FE48 EFLAG=00000297
0040BB24	CALL     0x40b99f                                         EAX=00000040 ECX=77AE3804 EDX=0000FF1E EBX=13A2BEC5 ESP=0018FE44 EBP=0018FF08 ESI=0040C714 EDI=0018FE48 EFLAG=00000203
0040B99F	BTC      EDX, 0xe                                         EAX=00000040 ECX=77AE3804 EDX=0000FF1E EBX=13A2BEC5 ESP=0018FE40 EBP=0018FF08 ESI=0040C714 EDI=0018FE48 EFLAG=00000203
0040B9A3	MOVZX    EDX, DL                                          EAX=00000040 ECX=77AE3804 EDX=0000BF1E EBX=13A2BEC5 ESP=0018FE40 EBP=0018FF08 ESI=0040C714 EDI=0018FE48 EFLAG=00000203
0040B9A6	CMC                                                       EAX=00000040 ECX=77AE3804 EDX=0000001E EBX=13A2BEC5 ESP=0018FE40 EBP=0018FF08 ESI=0040C714 EDI=0018FE48 EFLAG=00000203
0040B9A7	ROR      AL, 0x1                                          EAX=00000040 ECX=77AE3804 EDX=0000001E EBX=13A2BEC5 ESP=0018FE40 EBP=0018FF08 ESI=0040C714 EDI=0018FE48 EFLAG=00000202
0040B9A9	SBB      DX, 0x612a                                       EAX=00000020 ECX=77AE3804 EDX=0000001E EBX=13A2BEC5 ESP=0018FE40 EBP=0018FF08 ESI=0040C714 EDI=0018FE48 EFLAG=00000202
0040B9AE	ADC      DL, DL                                           EAX=00000020 ECX=77AE3804 EDX=00009EF4 EBX=13A2BEC5 ESP=0018FE40 EBP=0018FF08 ESI=0040C714 EDI=0018FE48 EFLAG=00000283
0040B9B0	ADD      DX, CX                                           EAX=00000020 ECX=77AE3804 EDX=00009EE9 EBX=13A2BEC5 ESP=0018FE40 EBP=0018FF08 ESI=0040C714 EDI=0018FE48 EFLAG=00000283
0040B9B3	BSWAP    DX                                               EAX=00000020 ECX=77AE3804 EDX=0000D6ED EBX=13A2BEC5 ESP=0018FE40 EBP=0018FF08 ESI=0040C714 EDI=0018FE48 EFLAG=00000286
0040B9B6	ADD      BL, AL                                           EAX=00000020 ECX=77AE3804 EDX=00000000 EBX=13A2BEC5 ESP=0018FE40 EBP=0018FF08 ESI=0040C714 EDI=0018FE48 EFLAG=00000286
0040B9B8	AND      EDX, ESP                                         EAX=00000020 ECX=77AE3804 EDX=00000000 EBX=13A2BEE5 ESP=0018FE40 EBP=0018FF08 ESI=0040C714 EDI=0018FE48 EFLAG=00000282
0040B9BA	LEA      ESI, [ESI-0x1]                                   EAX=00000020 ECX=77AE3804 EDX=00000000 EBX=13A2BEE5 ESP=0018FE40 EBP=0018FF08 ESI=0040C714 EDI=0018FE48 EFLAG=00000246
0040B9BD	SHRD     DX, SP, CL                                       EAX=00000020 ECX=77AE3804 EDX=00000000 EBX=13A2BEE5 ESP=0018FE40 EBP=0018FF08 ESI=0040C713 EDI=0018FE48 EFLAG=00000246
0040B9C1	INC      DX                                               EAX=00000020 ECX=77AE3804 EDX=00000000 EBX=13A2BEE5 ESP=0018FE40 EBP=0018FF08 ESI=0040C713 EDI=0018FE48 EFLAG=00000246
0040B9C4	SBB      EDX, EDX                                         EAX=00000020 ECX=77AE3804 EDX=00000001 EBX=13A2BEE5 ESP=0018FE40 EBP=0018FF08 ESI=0040C713 EDI=0018FE48 EFLAG=00000202
0040B9C6	ADD      DX, 0x9dea                                       EAX=00000020 ECX=77AE3804 EDX=00000000 EBX=13A2BEE5 ESP=0018FE40 EBP=0018FF08 ESI=0040C713 EDI=0018FE48 EFLAG=00000246
0040B9CB	MOV      EDX, [EBP+0x0]                                   EAX=00000020 ECX=77AE3804 EDX=00009DEA EBX=13A2BEE5 ESP=0018FE40 EBP=0018FF08 ESI=0040C713 EDI=0018FE48 EFLAG=00000282
0040B9CE	PUSHA                                                     EAX=00000020 ECX=77AE3804 EDX=00000206 EBX=13A2BEE5 ESP=0018FE40 EBP=0018FF08 ESI=0040C713 EDI=0018FE48 EFLAG=00000282
0040B9CF	STC                                                       EAX=00000020 ECX=77AE3804 EDX=00000206 EBX=13A2BEE5 ESP=0018FE20 EBP=0018FF08 ESI=0040C713 EDI=0018FE48 EFLAG=00000282
0040B9D0	CALL     0x40c120                                         EAX=00000020 ECX=77AE3804 EDX=00000206 EBX=13A2BEE5 ESP=0018FE20 EBP=0018FF08 ESI=0040C713 EDI=0018FE48 EFLAG=00000283
0040B3B2	ADD      EBP, 0x4                                         EAX=00000020 ECX=77AE3804 EDX=00000206 EBX=13A2BEE5 ESP=0018FE1C EBP=0018FF08 ESI=0040C713 EDI=0018FE48 EFLAG=00000283
0040B3B5	CALL     0x40c167                                         EAX=00000020 ECX=77AE3804 EDX=00000206 EBX=13A2BEE5 ESP=0018FE1C EBP=0018FF0C ESI=0040C713 EDI=0018FE48 EFLAG=00000206
0040C167	MOV      [EAX+EDI], EDX                                   EAX=00000020 ECX=77AE3804 EDX=00000206 EBX=13A2BEE5 ESP=0018FE18 EBP=0018FF0C ESI=0040C713 EDI=0018FE48 EFLAG=00000206
0040C16A	MOV      WORD [ESP+0x4], 0x4a62                           EAX=00000020 ECX=77AE3804 EDX=00000206 EBX=13A2BEE5 ESP=0018FE18 EBP=0018FF0C ESI=0040C713 EDI=0018FE48 EFLAG=00000206
0040C171	MOV      [ESP], DH                                        EAX=00000020 ECX=77AE3804 EDX=00000206 EBX=13A2BEE5 ESP=0018FE18 EBP=0018FF0C ESI=0040C713 EDI=0018FE48 EFLAG=00000206
0040C174	PUSHF                                                     EAX=00000020 ECX=77AE3804 EDX=00000206 EBX=13A2BEE5 ESP=0018FE18 EBP=0018FF0C ESI=0040C713 EDI=0018FE48 EFLAG=00000206
0040C175	PUSHF                                                     EAX=00000020 ECX=77AE3804 EDX=00000206 EBX=13A2BEE5 ESP=0018FE14 EBP=0018FF0C ESI=0040C713 EDI=0018FE48 EFLAG=00000206
0040C176	LEA      ESP, [ESP+0x38]                                  EAX=00000020 ECX=77AE3804 EDX=00000206 EBX=13A2BEE5 ESP=0018FE10 EBP=0018FF0C ESI=0040C713 EDI=0018FE48 EFLAG=00000206
0040BEFD	BSWAP    DX                                               EAX=00000020 ECX=77AE3804 EDX=00000206 EBX=13A2BEE5 ESP=0018FE48 EBP=0018FF0C ESI=0040C713 EDI=0018FE48 EFLAG=00000206
0040BF00	RCL      DL, CL                                           EAX=00000020 ECX=77AE3804 EDX=00000000 EBX=13A2BEE5 ESP=0018FE48 EBP=0018FF0C ESI=0040C713 EDI=0018FE48 EFLAG=00000206
0040BF02	PUSHA                                                     EAX=00000020 ECX=77AE3804 EDX=00000000 EBX=13A2BEE5 ESP=0018FE48 EBP=0018FF0C ESI=0040C713 EDI=0018FE48 EFLAG=00000206
0040BF03	AND      EDX, 0xfdc85d80                                  EAX=00000020 ECX=77AE3804 EDX=00000000 EBX=13A2BEE5 ESP=0018FE28 EBP=0018FF0C ESI=0040C713 EDI=0018FE48 EFLAG=00000206
0040BF09	MOV      AL, [ESI-0x1]                                    EAX=00000020 ECX=77AE3804 EDX=00000000 EBX=13A2BEE5 ESP=0018FE28 EBP=0018FF0C ESI=0040C713 EDI=0018FE48 EFLAG=00000246
0040BF0C	DEC      DH                                               EAX=000000A3 ECX=77AE3804 EDX=00000000 EBX=13A2BEE5 ESP=0018FE28 EBP=0018FF0C ESI=0040C713 EDI=0018FE48 EFLAG=00000246
0040BF0E	SUB      AL, BL                                           EAX=000000A3 ECX=77AE3804 EDX=0000FF00 EBX=13A2BEE5 ESP=0018FE28 EBP=0018FF0C ESI=0040C713 EDI=0018FE48 EFLAG=00000296
0040BF10	PUSHF                                                     EAX=000000BE ECX=77AE3804 EDX=0000FF00 EBX=13A2BEE5 ESP=0018FE28 EBP=0018FF0C ESI=0040C713 EDI=0018FE48 EFLAG=00000297
0040BF11	BTC      DX, 0x4                                          EAX=000000BE ECX=77AE3804 EDX=0000FF00 EBX=13A2BEE5 ESP=0018FE24 EBP=0018FF0C ESI=0040C713 EDI=0018FE48 EFLAG=00000297
0040BF16	PUSH     ESP                                              EAX=000000BE ECX=77AE3804 EDX=0000FF10 EBX=13A2BEE5 ESP=0018FE24 EBP=0018FF0C ESI=0040C713 EDI=0018FE48 EFLAG=00000296
0040BF17	MOVZX    DX, AL                                           EAX=000000BE ECX=77AE3804 EDX=0000FF10 EBX=13A2BEE5 ESP=0018FE20 EBP=0018FF0C ESI=0040C713 EDI=0018FE48 EFLAG=00000296
0040BF1B	ROR      AL, 0x7                                          EAX=000000BE ECX=77AE3804 EDX=000000BE EBX=13A2BEE5 ESP=0018FE20 EBP=0018FF0C ESI=0040C713 EDI=0018FE48 EFLAG=00000296
0040BF1E	ROL      DH, 0x3                                          EAX=0000007D ECX=77AE3804 EDX=000000BE EBX=13A2BEE5 ESP=0018FE20 EBP=0018FF0C ESI=0040C713 EDI=0018FE48 EFLAG=00000A96
0040BF21	SUB      AL, 0x30                                         EAX=0000007D ECX=77AE3804 EDX=000000BE EBX=13A2BEE5 ESP=0018FE20 EBP=0018FF0C ESI=0040C713 EDI=0018FE48 EFLAG=00000296
0040BF23	SHR      DX, 0x9                                          EAX=0000004D ECX=77AE3804 EDX=000000BE EBX=13A2BEE5 ESP=0018FE20 EBP=0018FF0C ESI=0040C713 EDI=0018FE48 EFLAG=00000206
0040BF27	XOR      AL, 0xce                                         EAX=0000004D ECX=77AE3804 EDX=00000000 EBX=13A2BEE5 ESP=0018FE20 EBP=0018FF0C ESI=0040C713 EDI=0018FE48 EFLAG=00000246
0040BF29	ADC      DL, 0xdb                                         EAX=00000083 ECX=77AE3804 EDX=00000000 EBX=13A2BEE5 ESP=0018FE20 EBP=0018FF0C ESI=0040C713 EDI=0018FE48 EFLAG=00000282
0040BF2C	BT       EBX, EDI                                         EAX=00000083 ECX=77AE3804 EDX=000000DB EBX=13A2BEE5 ESP=0018FE20 EBP=0018FF0C ESI=0040C713 EDI=0018FE48 EFLAG=00000286
0040BF2F	SETL     DH                                               EAX=00000083 ECX=77AE3804 EDX=000000DB EBX=13A2BEE5 ESP=0018FE20 EBP=0018FF0C ESI=0040C713 EDI=0018FE48 EFLAG=00000286
0040BF32	SUB      BL, AL                                           EAX=00000083 ECX=77AE3804 EDX=000001DB EBX=13A2BEE5 ESP=0018FE20 EBP=0018FF0C ESI=0040C713 EDI=0018FE48 EFLAG=00000286
0040BF34	STC                                                       EAX=00000083 ECX=77AE3804 EDX=000001DB EBX=13A2BE62 ESP=0018FE20 EBP=0018FF0C ESI=0040C713 EDI=0018FE48 EFLAG=00000202
0040BF35	MOVZX    EAX, AL                                          EAX=00000083 ECX=77AE3804 EDX=000001DB EBX=13A2BE62 ESP=0018FE20 EBP=0018FF0C ESI=0040C713 EDI=0018FE48 EFLAG=00000203
0040BF38	NOT      EDX                                              EAX=00000083 ECX=77AE3804 EDX=000001DB EBX=13A2BE62 ESP=0018FE20 EBP=0018FF0C ESI=0040C713 EDI=0018FE48 EFLAG=00000203
0040BF3A	BSF      EDX, EDI                                         EAX=00000083 ECX=77AE3804 EDX=FFFFFE24 EBX=13A2BE62 ESP=0018FE20 EBP=0018FF0C ESI=0040C713 EDI=0018FE48 EFLAG=00000203
0040BF3E	CMC                                                       EAX=00000083 ECX=77AE3804 EDX=FFFF0003 EBX=13A2BE62 ESP=0018FE20 EBP=0018FF0C ESI=0040C713 EDI=0018FE48 EFLAG=00000206
0040BF3F	SAL      DH, CL                                           EAX=00000083 ECX=77AE3804 EDX=FFFF0003 EBX=13A2BE62 ESP=0018FE20 EBP=0018FF0C ESI=0040C713 EDI=0018FE48 EFLAG=00000207
0040BF41	MOV      EDX, [EAX*4+0x40a51f]                            EAX=00000083 ECX=77AE3804 EDX=FFFF0003 EBX=13A2BE62 ESP=0018FE20 EBP=0018FF0C ESI=0040C713 EDI=0018FE48 EFLAG=00000246
0040BF48	TEST     EDX, 0xe75c2a09                                  EAX=00000083 ECX=77AE3804 EDX=2BFA6887 EBX=13A2BE62 ESP=0018FE20 EBP=0018FF0C ESI=0040C713 EDI=0018FE48 EFLAG=00000246
0040BF4E	TEST     BL, DL                                           EAX=00000083 ECX=77AE3804 EDX=2BFA6887 EBX=13A2BE62 ESP=0018FE20 EBP=0018FF0C ESI=0040C713 EDI=0018FE48 EFLAG=00000202
0040BF50	SUB      EDX, 0x2bb9b71b                                  EAX=00000083 ECX=77AE3804 EDX=2BFA6887 EBX=13A2BE62 ESP=0018FE20 EBP=0018FF0C ESI=0040C713 EDI=0018FE48 EFLAG=00000202
0040BF56	CALL     0x40bd78                                         EAX=00000083 ECX=77AE3804 EDX=0040B16C EBX=13A2BE62 ESP=0018FE20 EBP=0018FF0C ESI=0040C713 EDI=0018FE48 EFLAG=00000216
0040BD78	PUSH     EDX                                              EAX=00000083 ECX=77AE3804 EDX=0040B16C EBX=13A2BE62 ESP=0018FE1C EBP=0018FF0C ESI=0040C713 EDI=0018FE48 EFLAG=00000216
0040BD79	DEC      ESI                                              EAX=00000083 ECX=77AE3804 EDX=0040B16C EBX=13A2BE62 ESP=0018FE18 EBP=0018FF0C ESI=0040C713 EDI=0018FE48 EFLAG=00000216
0040BD7A	PUSHF                                                     EAX=00000083 ECX=77AE3804 EDX=0040B16C EBX=13A2BE62 ESP=0018FE18 EBP=0018FF0C ESI=0040C712 EDI=0018FE48 EFLAG=00000206
0040A91F	MOV      [ESP], DH                                        EAX=00000083 ECX=77AE3804 EDX=0040B16C EBX=13A2BE62 ESP=0018FE14 EBP=0018FF0C ESI=0040C712 EDI=0018FE48 EFLAG=00000206
0040A922	MOV      [ESP+0x30], EDX                                  EAX=00000083 ECX=77AE3804 EDX=0040B16C EBX=13A2BE62 ESP=0018FE14 EBP=0018FF0C ESI=0040C712 EDI=0018FE48 EFLAG=00000206
0040A926	MOV      [ESP], AL                                        EAX=00000083 ECX=77AE3804 EDX=0040B16C EBX=13A2BE62 ESP=0018FE14 EBP=0018FF0C ESI=0040C712 EDI=0018FE48 EFLAG=00000206
0040A929	PUSH     DWORD [ESP+0x30]                                 EAX=00000083 ECX=77AE3804 EDX=0040B16C EBX=13A2BE62 ESP=0018FE14 EBP=0018FF0C ESI=0040C712 EDI=0018FE48 EFLAG=00000206
0040A92D	RET      0x34                                             EAX=00000083 ECX=77AE3804 EDX=0040B16C EBX=13A2BE62 ESP=0018FE10 EBP=0018FF0C ESI=0040C712 EDI=0018FE48 EFLAG=00000206
0040B16C	CALL     0x40bb09                                         EAX=00000083 ECX=77AE3804 EDX=0040B16C EBX=13A2BE62 ESP=0018FE48 EBP=0018FF0C ESI=0040C712 EDI=0018FE48 EFLAG=00000206
0040BB09	SUB      DL, AH                                           EAX=00000083 ECX=77AE3804 EDX=0040B16C EBX=13A2BE62 ESP=0018FE44 EBP=0018FF0C ESI=0040C712 EDI=0018FE48 EFLAG=00000206
0040BB0B	MOV      AL, [ESI-0x1]                                    EAX=00000083 ECX=77AE3804 EDX=0040B16C EBX=13A2BE62 ESP=0018FE44 EBP=0018FF0C ESI=0040C712 EDI=0018FE48 EFLAG=00000206
0040BB0E	LEA      ESP, [ESP+0x4]                                   EAX=0000007F ECX=77AE3804 EDX=0040B16C EBX=13A2BE62 ESP=0018FE44 EBP=0018FF0C ESI=0040C712 EDI=0018FE48 EFLAG=00000206
0040BB12	JNP      0x40bd9a                                         EAX=0000007F ECX=77AE3804 EDX=0040B16C EBX=13A2BE62 ESP=0018FE48 EBP=0018FF0C ESI=0040C712 EDI=0018FE48 EFLAG=00000206
0040BB18	BSR      EDX, ECX                                         EAX=0000007F ECX=77AE3804 EDX=0040B16C EBX=13A2BE62 ESP=0018FE48 EBP=0018FF0C ESI=0040C712 EDI=0018FE48 EFLAG=00000206
0040BB1B	ADD      AL, BL                                           EAX=0000007F ECX=77AE3804 EDX=0000001E EBX=13A2BE62 ESP=0018FE48 EBP=0018FF0C ESI=0040C712 EDI=0018FE48 EFLAG=00000206
0040BB1D	PUSH     EDX                                              EAX=000000E1 ECX=77AE3804 EDX=0000001E EBX=13A2BE62 ESP=0018FE48 EBP=0018FF0C ESI=0040C712 EDI=0018FE48 EFLAG=00000A96
0040BB1E	DEC      AL                                               EAX=000000E1 ECX=77AE3804 EDX=0000001E EBX=13A2BE62 ESP=0018FE44 EBP=0018FF0C ESI=0040C712 EDI=0018FE48 EFLAG=00000A96
0040BB20	DEC      DH                                               EAX=000000E0 ECX=77AE3804 EDX=0000001E EBX=13A2BE62 ESP=0018FE44 EBP=0018FF0C ESI=0040C712 EDI=0018FE48 EFLAG=00000282
0040BB22	NEG      AL                                               EAX=000000E0 ECX=77AE3804 EDX=0000FF1E EBX=13A2BE62 ESP=0018FE44 EBP=0018FF0C ESI=0040C712 EDI=0018FE48 EFLAG=00000296
0040BB24	CALL     0x40b99f                                         EAX=00000020 ECX=77AE3804 EDX=0000FF1E EBX=13A2BE62 ESP=0018FE44 EBP=0018FF0C ESI=0040C712 EDI=0018FE48 EFLAG=00000203
0040B99F	BTC      EDX, 0xe                                         EAX=00000020 ECX=77AE3804 EDX=0000FF1E EBX=13A2BE62 ESP=0018FE40 EBP=0018FF0C ESI=0040C712 EDI=0018FE48 EFLAG=00000203
0040B9A3	MOVZX    EDX, DL                                          EAX=00000020 ECX=77AE3804 EDX=0000BF1E EBX=13A2BE62 ESP=0018FE40 EBP=0018FF0C ESI=0040C712 EDI=0018FE48 EFLAG=00000203
0040B9A6	CMC                                                       EAX=00000020 ECX=77AE3804 EDX=0000001E EBX=13A2BE62 ESP=0018FE40 EBP=0018FF0C ESI=0040C712 EDI=0018FE48 EFLAG=00000203
0040B9A7	ROR      AL, 0x1                                          EAX=00000020 ECX=77AE3804 EDX=0000001E EBX=13A2BE62 ESP=0018FE40 EBP=0018FF0C ESI=0040C712 EDI=0018FE48 EFLAG=00000202
0040B9A9	SBB      DX, 0x612a                                       EAX=00000010 ECX=77AE3804 EDX=0000001E EBX=13A2BE62 ESP=0018FE40 EBP=0018FF0C ESI=0040C712 EDI=0018FE48 EFLAG=00000202
0040B9AE	ADC      DL, DL                                           EAX=00000010 ECX=77AE3804 EDX=00009EF4 EBX=13A2BE62 ESP=0018FE40 EBP=0018FF0C ESI=0040C712 EDI=0018FE48 EFLAG=00000283
0040B9B0	ADD      DX, CX                                           EAX=00000010 ECX=77AE3804 EDX=00009EE9 EBX=13A2BE62 ESP=0018FE40 EBP=0018FF0C ESI=0040C712 EDI=0018FE48 EFLAG=00000283
0040B9B3	BSWAP    DX                                               EAX=00000010 ECX=77AE3804 EDX=0000D6ED EBX=13A2BE62 ESP=0018FE40 EBP=0018FF0C ESI=0040C712 EDI=0018FE48 EFLAG=00000286
0040B9B6	ADD      BL, AL                                           EAX=00000010 ECX=77AE3804 EDX=00000000 EBX=13A2BE62 ESP=0018FE40 EBP=0018FF0C ESI=0040C712 EDI=0018FE48 EFLAG=00000286
0040B9B8	AND      EDX, ESP                                         EAX=00000010 ECX=77AE3804 EDX=00000000 EBX=13A2BE72 ESP=0018FE40 EBP=0018FF0C ESI=0040C712 EDI=0018FE48 EFLAG=00000206
0040B9BA	LEA      ESI, [ESI-0x1]                                   EAX=00000010 ECX=77AE3804 EDX=00000000 EBX=13A2BE72 ESP=0018FE40 EBP=0018FF0C ESI=0040C712 EDI=0018FE48 EFLAG=00000246
0040B9BD	SHRD     DX, SP, CL                                       EAX=00000010 ECX=77AE3804 EDX=00000000 EBX=13A2BE72 ESP=0018FE40 EBP=0018FF0C ESI=0040C711 EDI=0018FE48 EFLAG=00000246
0040B9C1	INC      DX                                               EAX=00000010 ECX=77AE3804 EDX=00000000 EBX=13A2BE72 ESP=0018FE40 EBP=0018FF0C ESI=0040C711 EDI=0018FE48 EFLAG=00000246
0040B9C4	SBB      EDX, EDX                                         EAX=00000010 ECX=77AE3804 EDX=00000001 EBX=13A2BE72 ESP=0018FE40 EBP=0018FF0C ESI=0040C711 EDI=0018FE48 EFLAG=00000202
0040B9C6	ADD      DX, 0x9dea                                       EAX=00000010 ECX=77AE3804 EDX=00000000 EBX=13A2BE72 ESP=0018FE40 EBP=0018FF0C ESI=0040C711 EDI=0018FE48 EFLAG=00000246
0040B9CB	MOV      EDX, [EBP+0x0]                                   EAX=00000010 ECX=77AE3804 EDX=00009DEA EBX=13A2BE72 ESP=0018FE40 EBP=0018FF0C ESI=0040C711 EDI=0018FE48 EFLAG=00000282
0040B9CE	PUSHA                                                     EAX=00000010 ECX=77AE3804 EDX=13E27981 EBX=13A2BE72 ESP=0018FE40 EBP=0018FF0C ESI=0040C711 EDI=0018FE48 EFLAG=00000282
0040B9CF	STC                                                       EAX=00000010 ECX=77AE3804 EDX=13E27981 EBX=13A2BE72 ESP=0018FE20 EBP=0018FF0C ESI=0040C711 EDI=0018FE48 EFLAG=00000282
0040B9D0	CALL     0x40c120                                         EAX=00000010 ECX=77AE3804 EDX=13E27981 EBX=13A2BE72 ESP=0018FE20 EBP=0018FF0C ESI=0040C711 EDI=0018FE48 EFLAG=00000283
0040B3B2	ADD      EBP, 0x4                                         EAX=00000010 ECX=77AE3804 EDX=13E27981 EBX=13A2BE72 ESP=0018FE1C EBP=0018FF0C ESI=0040C711 EDI=0018FE48 EFLAG=00000283
0040B3B5	CALL     0x40c167                                         EAX=00000010 ECX=77AE3804 EDX=13E27981 EBX=13A2BE72 ESP=0018FE1C EBP=0018FF10 ESI=0040C711 EDI=0018FE48 EFLAG=00000212
0040C167	MOV      [EAX+EDI], EDX                                   EAX=00000010 ECX=77AE3804 EDX=13E27981 EBX=13A2BE72 ESP=0018FE18 EBP=0018FF10 ESI=0040C711 EDI=0018FE48 EFLAG=00000212
0040C16A	MOV      WORD [ESP+0x4], 0x4a62                           EAX=00000010 ECX=77AE3804 EDX=13E27981 EBX=13A2BE72 ESP=0018FE18 EBP=0018FF10 ESI=0040C711 EDI=0018FE48 EFLAG=00000212
0040C171	MOV      [ESP], DH                                        EAX=00000010 ECX=77AE3804 EDX=13E27981 EBX=13A2BE72 ESP=0018FE18 EBP=0018FF10 ESI=0040C711 EDI=0018FE48 EFLAG=00000212
0040C174	PUSHF                                                     EAX=00000010 ECX=77AE3804 EDX=13E27981 EBX=13A2BE72 ESP=0018FE18 EBP=0018FF10 ESI=0040C711 EDI=0018FE48 EFLAG=00000212
0040C175	PUSHF                                                     EAX=00000010 ECX=77AE3804 EDX=13E27981 EBX=13A2BE72 ESP=0018FE14 EBP=0018FF10 ESI=0040C711 EDI=0018FE48 EFLAG=00000212
0040C176	LEA      ESP, [ESP+0x38]                                  EAX=00000010 ECX=77AE3804 EDX=13E27981 EBX=13A2BE72 ESP=0018FE10 EBP=0018FF10 ESI=0040C711 EDI=0018FE48 EFLAG=00000212
0040BEFD	BSWAP    DX                                               EAX=00000010 ECX=77AE3804 EDX=13E27981 EBX=13A2BE72 ESP=0018FE48 EBP=0018FF10 ESI=0040C711 EDI=0018FE48 EFLAG=00000212
0040BF00	RCL      DL, CL                                           EAX=00000010 ECX=77AE3804 EDX=13E20000 EBX=13A2BE72 ESP=0018FE48 EBP=0018FF10 ESI=0040C711 EDI=0018FE48 EFLAG=00000212
0040BF02	PUSHA                                                     EAX=00000010 ECX=77AE3804 EDX=13E20000 EBX=13A2BE72 ESP=0018FE48 EBP=0018FF10 ESI=0040C711 EDI=0018FE48 EFLAG=00000212
0040BF03	AND      EDX, 0xfdc85d80                                  EAX=00000010 ECX=77AE3804 EDX=13E20000 EBX=13A2BE72 ESP=0018FE28 EBP=0018FF10 ESI=0040C711 EDI=0018FE48 EFLAG=00000212
0040BF09	MOV      AL, [ESI-0x1]                                    EAX=00000010 ECX=77AE3804 EDX=11C00000 EBX=13A2BE72 ESP=0018FE28 EBP=0018FF10 ESI=0040C711 EDI=0018FE48 EFLAG=00000206
0040BF0C	DEC      DH                                               EAX=0000006A ECX=77AE3804 EDX=11C00000 EBX=13A2BE72 ESP=0018FE28 EBP=0018FF10 ESI=0040C711 EDI=0018FE48 EFLAG=00000206
0040BF0E	SUB      AL, BL                                           EAX=0000006A ECX=77AE3804 EDX=11C0FF00 EBX=13A2BE72 ESP=0018FE28 EBP=0018FF10 ESI=0040C711 EDI=0018FE48 EFLAG=00000296
0040BF10	PUSHF                                                     EAX=000000F8 ECX=77AE3804 EDX=11C0FF00 EBX=13A2BE72 ESP=0018FE28 EBP=0018FF10 ESI=0040C711 EDI=0018FE48 EFLAG=00000283
0040BF11	BTC      DX, 0x4                                          EAX=000000F8 ECX=77AE3804 EDX=11C0FF00 EBX=13A2BE72 ESP=0018FE24 EBP=0018FF10 ESI=0040C711 EDI=0018FE48 EFLAG=00000283
0040BF16	PUSH     ESP                                              EAX=000000F8 ECX=77AE3804 EDX=11C0FF10 EBX=13A2BE72 ESP=0018FE24 EBP=0018FF10 ESI=0040C711 EDI=0018FE48 EFLAG=00000282
0040BF17	MOVZX    DX, AL                                           EAX=000000F8 ECX=77AE3804 EDX=11C0FF10 EBX=13A2BE72 ESP=0018FE20 EBP=0018FF10 ESI=0040C711 EDI=0018FE48 EFLAG=00000282
0040BF1B	ROR      AL, 0x7                                          EAX=000000F8 ECX=77AE3804 EDX=11C000F8 EBX=13A2BE72 ESP=0018FE20 EBP=0018FF10 ESI=0040C711 EDI=0018FE48 EFLAG=00000282
0040BF1E	ROL      DH, 0x3                                          EAX=000000F1 ECX=77AE3804 EDX=11C000F8 EBX=13A2BE72 ESP=0018FE20 EBP=0018FF10 ESI=0040C711 EDI=0018FE48 EFLAG=00000283
0040BF21	SUB      AL, 0x30                                         EAX=000000F1 ECX=77AE3804 EDX=11C000F8 EBX=13A2BE72 ESP=0018FE20 EBP=0018FF10 ESI=0040C711 EDI=0018FE48 EFLAG=00000282
0040BF23	SHR      DX, 0x9                                          EAX=000000C1 ECX=77AE3804 EDX=11C000F8 EBX=13A2BE72 ESP=0018FE20 EBP=0018FF10 ESI=0040C711 EDI=0018FE48 EFLAG=00000282
0040BF27	XOR      AL, 0xce                                         EAX=000000C1 ECX=77AE3804 EDX=11C00000 EBX=13A2BE72 ESP=0018FE20 EBP=0018FF10 ESI=0040C711 EDI=0018FE48 EFLAG=00000246
0040BF29	ADC      DL, 0xdb                                         EAX=0000000F ECX=77AE3804 EDX=11C00000 EBX=13A2BE72 ESP=0018FE20 EBP=0018FF10 ESI=0040C711 EDI=0018FE48 EFLAG=00000206
0040BF2C	BT       EBX, EDI                                         EAX=0000000F ECX=77AE3804 EDX=11C000DB EBX=13A2BE72 ESP=0018FE20 EBP=0018FF10 ESI=0040C711 EDI=0018FE48 EFLAG=00000286
0040BF2F	SETL     DH                                               EAX=0000000F ECX=77AE3804 EDX=11C000DB EBX=13A2BE72 ESP=0018FE20 EBP=0018FF10 ESI=0040C711 EDI=0018FE48 EFLAG=00000286
0040BF32	SUB      BL, AL                                           EAX=0000000F ECX=77AE3804 EDX=11C001DB EBX=13A2BE72 ESP=0018FE20 EBP=0018FF10 ESI=0040C711 EDI=0018FE48 EFLAG=00000286
0040BF34	STC                                                       EAX=0000000F ECX=77AE3804 EDX=11C001DB EBX=13A2BE63 ESP=0018FE20 EBP=0018FF10 ESI=0040C711 EDI=0018FE48 EFLAG=00000216
0040BF35	MOVZX    EAX, AL                                          EAX=0000000F ECX=77AE3804 EDX=11C001DB EBX=13A2BE63 ESP=0018FE20 EBP=0018FF10 ESI=0040C711 EDI=0018FE48 EFLAG=00000217
0040BF38	NOT      EDX                                              EAX=0000000F ECX=77AE3804 EDX=11C001DB EBX=13A2BE63 ESP=0018FE20 EBP=0018FF10 ESI=0040C711 EDI=0018FE48 EFLAG=00000217
0040BF3A	BSF      EDX, EDI                                         EAX=0000000F ECX=77AE3804 EDX=EE3FFE24 EBX=13A2BE63 ESP=0018FE20 EBP=0018FF10 ESI=0040C711 EDI=0018FE48 EFLAG=00000217
0040BF3E	CMC                                                       EAX=0000000F ECX=77AE3804 EDX=EE3F0003 EBX=13A2BE63 ESP=0018FE20 EBP=0018FF10 ESI=0040C711 EDI=0018FE48 EFLAG=00000206
0040BF3F	SAL      DH, CL                                           EAX=0000000F ECX=77AE3804 EDX=EE3F0003 EBX=13A2BE63 ESP=0018FE20 EBP=0018FF10 ESI=0040C711 EDI=0018FE48 EFLAG=00000207
0040BF41	MOV      EDX, [EAX*4+0x40a51f]                            EAX=0000000F ECX=77AE3804 EDX=EE3F0003 EBX=13A2BE63 ESP=0018FE20 EBP=0018FF10 ESI=0040C711 EDI=0018FE48 EFLAG=00000246
0040BF48	TEST     EDX, 0xe75c2a09                                  EAX=0000000F ECX=77AE3804 EDX=2BFA6887 EBX=13A2BE63 ESP=0018FE20 EBP=0018FF10 ESI=0040C711 EDI=0018FE48 EFLAG=00000246
0040BF4E	TEST     BL, DL                                           EAX=0000000F ECX=77AE3804 EDX=2BFA6887 EBX=13A2BE63 ESP=0018FE20 EBP=0018FF10 ESI=0040C711 EDI=0018FE48 EFLAG=00000202
0040BF50	SUB      EDX, 0x2bb9b71b                                  EAX=0000000F ECX=77AE3804 EDX=2BFA6887 EBX=13A2BE63 ESP=0018FE20 EBP=0018FF10 ESI=0040C711 EDI=0018FE48 EFLAG=00000206
0040BF56	CALL     0x40bd78                                         EAX=0000000F ECX=77AE3804 EDX=0040B16C EBX=13A2BE63 ESP=0018FE20 EBP=0018FF10 ESI=0040C711 EDI=0018FE48 EFLAG=00000216
0040BD78	PUSH     EDX                                              EAX=0000000F ECX=77AE3804 EDX=0040B16C EBX=13A2BE63 ESP=0018FE1C EBP=0018FF10 ESI=0040C711 EDI=0018FE48 EFLAG=00000216
0040BD79	DEC      ESI                                              EAX=0000000F ECX=77AE3804 EDX=0040B16C EBX=13A2BE63 ESP=0018FE18 EBP=0018FF10 ESI=0040C711 EDI=0018FE48 EFLAG=00000216
0040BD7A	PUSHF                                                     EAX=0000000F ECX=77AE3804 EDX=0040B16C EBX=13A2BE63 ESP=0018FE18 EBP=0018FF10 ESI=0040C710 EDI=0018FE48 EFLAG=00000202
0040A91F	MOV      [ESP], DH                                        EAX=0000000F ECX=77AE3804 EDX=0040B16C EBX=13A2BE63 ESP=0018FE14 EBP=0018FF10 ESI=0040C710 EDI=0018FE48 EFLAG=00000202
0040A922	MOV      [ESP+0x30], EDX                                  EAX=0000000F ECX=77AE3804 EDX=0040B16C EBX=13A2BE63 ESP=0018FE14 EBP=0018FF10 ESI=0040C710 EDI=0018FE48 EFLAG=00000202
0040A926	MOV      [ESP], AL                                        EAX=0000000F ECX=77AE3804 EDX=0040B16C EBX=13A2BE63 ESP=0018FE14 EBP=0018FF10 ESI=0040C710 EDI=0018FE48 EFLAG=00000202
0040A929	PUSH     DWORD [ESP+0x30]                                 EAX=0000000F ECX=77AE3804 EDX=0040B16C EBX=13A2BE63 ESP=0018FE14 EBP=0018FF10 ESI=0040C710 EDI=0018FE48 EFLAG=00000202
0040A92D	RET      0x34                                             EAX=0000000F ECX=77AE3804 EDX=0040B16C EBX=13A2BE63 ESP=0018FE10 EBP=0018FF10 ESI=0040C710 EDI=0018FE48 EFLAG=00000202
0040B16C	CALL     0x40bb09                                         EAX=0000000F ECX=77AE3804 EDX=0040B16C EBX=13A2BE63 ESP=0018FE48 EBP=0018FF10 ESI=0040C710 EDI=0018FE48 EFLAG=00000202
0040BB09	SUB      DL, AH                                           EAX=0000000F ECX=77AE3804 EDX=0040B16C EBX=13A2BE63 ESP=0018FE44 EBP=0018FF10 ESI=0040C710 EDI=0018FE48 EFLAG=00000202
0040BB0B	MOV      AL, [ESI-0x1]                                    EAX=0000000F ECX=77AE3804 EDX=0040B16C EBX=13A2BE63 ESP=0018FE44 EBP=0018FF10 ESI=0040C710 EDI=0018FE48 EFLAG=00000206
0040BB0E	LEA      ESP, [ESP+0x4]                                   EAX=00000056 ECX=77AE3804 EDX=0040B16C EBX=13A2BE63 ESP=0018FE44 EBP=0018FF10 ESI=0040C710 EDI=0018FE48 EFLAG=00000206
0040BB12	JNP      0x40bd9a                                         EAX=00000056 ECX=77AE3804 EDX=0040B16C EBX=13A2BE63 ESP=0018FE48 EBP=0018FF10 ESI=0040C710 EDI=0018FE48 EFLAG=00000206
0040BB18	BSR      EDX, ECX                                         EAX=00000056 ECX=77AE3804 EDX=0040B16C EBX=13A2BE63 ESP=0018FE48 EBP=0018FF10 ESI=0040C710 EDI=0018FE48 EFLAG=00000206
0040BB1B	ADD      AL, BL                                           EAX=00000056 ECX=77AE3804 EDX=0000001E EBX=13A2BE63 ESP=0018FE48 EBP=0018FF10 ESI=0040C710 EDI=0018FE48 EFLAG=00000206
0040BB1D	PUSH     EDX                                              EAX=000000B9 ECX=77AE3804 EDX=0000001E EBX=13A2BE63 ESP=0018FE48 EBP=0018FF10 ESI=0040C710 EDI=0018FE48 EFLAG=00000A82
0040BB1E	DEC      AL                                               EAX=000000B9 ECX=77AE3804 EDX=0000001E EBX=13A2BE63 ESP=0018FE44 EBP=0018FF10 ESI=0040C710 EDI=0018FE48 EFLAG=00000A82
0040BB20	DEC      DH                                               EAX=000000B8 ECX=77AE3804 EDX=0000001E EBX=13A2BE63 ESP=0018FE44 EBP=0018FF10 ESI=0040C710 EDI=0018FE48 EFLAG=00000286
0040BB22	NEG      AL                                               EAX=000000B8 ECX=77AE3804 EDX=0000FF1E EBX=13A2BE63 ESP=0018FE44 EBP=0018FF10 ESI=0040C710 EDI=0018FE48 EFLAG=00000296
0040BB24	CALL     0x40b99f                                         EAX=00000048 ECX=77AE3804 EDX=0000FF1E EBX=13A2BE63 ESP=0018FE44 EBP=0018FF10 ESI=0040C710 EDI=0018FE48 EFLAG=00000217
0040B99F	BTC      EDX, 0xe                                         EAX=00000048 ECX=77AE3804 EDX=0000FF1E EBX=13A2BE63 ESP=0018FE40 EBP=0018FF10 ESI=0040C710 EDI=0018FE48 EFLAG=00000217
0040B9A3	MOVZX    EDX, DL                                          EAX=00000048 ECX=77AE3804 EDX=0000BF1E EBX=13A2BE63 ESP=0018FE40 EBP=0018FF10 ESI=0040C710 EDI=0018FE48 EFLAG=00000217
0040B9A6	CMC                                                       EAX=00000048 ECX=77AE3804 EDX=0000001E EBX=13A2BE63 ESP=0018FE40 EBP=0018FF10 ESI=0040C710 EDI=0018FE48 EFLAG=00000217
0040B9A7	ROR      AL, 0x1                                          EAX=00000048 ECX=77AE3804 EDX=0000001E EBX=13A2BE63 ESP=0018FE40 EBP=0018FF10 ESI=0040C710 EDI=0018FE48 EFLAG=00000216
0040B9A9	SBB      DX, 0x612a                                       EAX=00000024 ECX=77AE3804 EDX=0000001E EBX=13A2BE63 ESP=0018FE40 EBP=0018FF10 ESI=0040C710 EDI=0018FE48 EFLAG=00000216
0040B9AE	ADC      DL, DL                                           EAX=00000024 ECX=77AE3804 EDX=00009EF4 EBX=13A2BE63 ESP=0018FE40 EBP=0018FF10 ESI=0040C710 EDI=0018FE48 EFLAG=00000283
0040B9B0	ADD      DX, CX                                           EAX=00000024 ECX=77AE3804 EDX=00009EE9 EBX=13A2BE63 ESP=0018FE40 EBP=0018FF10 ESI=0040C710 EDI=0018FE48 EFLAG=00000283
0040B9B3	BSWAP    DX                                               EAX=00000024 ECX=77AE3804 EDX=0000D6ED EBX=13A2BE63 ESP=0018FE40 EBP=0018FF10 ESI=0040C710 EDI=0018FE48 EFLAG=00000286
0040B9B6	ADD      BL, AL                                           EAX=00000024 ECX=77AE3804 EDX=00000000 EBX=13A2BE63 ESP=0018FE40 EBP=0018FF10 ESI=0040C710 EDI=0018FE48 EFLAG=00000286
0040B9B8	AND      EDX, ESP                                         EAX=00000024 ECX=77AE3804 EDX=00000000 EBX=13A2BE87 ESP=0018FE40 EBP=0018FF10 ESI=0040C710 EDI=0018FE48 EFLAG=00000A86
0040B9BA	LEA      ESI, [ESI-0x1]                                   EAX=00000024 ECX=77AE3804 EDX=00000000 EBX=13A2BE87 ESP=0018FE40 EBP=0018FF10 ESI=0040C710 EDI=0018FE48 EFLAG=00000246
0040B9BD	SHRD     DX, SP, CL                                       EAX=00000024 ECX=77AE3804 EDX=00000000 EBX=13A2BE87 ESP=0018FE40 EBP=0018FF10 ESI=0040C70F EDI=0018FE48 EFLAG=00000246
0040B9C1	INC      DX                                               EAX=00000024 ECX=77AE3804 EDX=00000000 EBX=13A2BE87 ESP=0018FE40 EBP=0018FF10 ESI=0040C70F EDI=0018FE48 EFLAG=00000246
0040B9C4	SBB      EDX, EDX                                         EAX=00000024 ECX=77AE3804 EDX=00000001 EBX=13A2BE87 ESP=0018FE40 EBP=0018FF10 ESI=0040C70F EDI=0018FE48 EFLAG=00000202
0040B9C6	ADD      DX, 0x9dea                                       EAX=00000024 ECX=77AE3804 EDX=00000000 EBX=13A2BE87 ESP=0018FE40 EBP=0018FF10 ESI=0040C70F EDI=0018FE48 EFLAG=00000246
0040B9CB	MOV      EDX, [EBP+0x0]                                   EAX=00000024 ECX=77AE3804 EDX=00009DEA EBX=13A2BE87 ESP=0018FE40 EBP=0018FF10 ESI=0040C70F EDI=0018FE48 EFLAG=00000282
0040B9CE	PUSHA                                                     EAX=00000024 ECX=77AE3804 EDX=005A7258 EBX=13A2BE87 ESP=0018FE40 EBP=0018FF10 ESI=0040C70F EDI=0018FE48 EFLAG=00000282
0040B9CF	STC                                                       EAX=00000024 ECX=77AE3804 EDX=005A7258 EBX=13A2BE87 ESP=0018FE20 EBP=0018FF10 ESI=0040C70F EDI=0018FE48 EFLAG=00000282
0040B9D0	CALL     0x40c120                                         EAX=00000024 ECX=77AE3804 EDX=005A7258 EBX=13A2BE87 ESP=0018FE20 EBP=0018FF10 ESI=0040C70F EDI=0018FE48 EFLAG=00000283
0040B3B2	ADD      EBP, 0x4                                         EAX=00000024 ECX=77AE3804 EDX=005A7258 EBX=13A2BE87 ESP=0018FE1C EBP=0018FF10 ESI=0040C70F EDI=0018FE48 EFLAG=00000283
0040B3B5	CALL     0x40c167                                         EAX=00000024 ECX=77AE3804 EDX=005A7258 EBX=13A2BE87 ESP=0018FE1C EBP=0018FF14 ESI=0040C70F EDI=0018FE48 EFLAG=00000206
0040C167	MOV      [EAX+EDI], EDX                                   EAX=00000024 ECX=77AE3804 EDX=005A7258 EBX=13A2BE87 ESP=0018FE18 EBP=0018FF14 ESI=0040C70F EDI=0018FE48 EFLAG=00000206
0040C16A	MOV      WORD [ESP+0x4], 0x4a62                           EAX=00000024 ECX=77AE3804 EDX=005A7258 EBX=13A2BE87 ESP=0018FE18 EBP=0018FF14 ESI=0040C70F EDI=0018FE48 EFLAG=00000206
0040C171	MOV      [ESP], DH                                        EAX=00000024 ECX=77AE3804 EDX=005A7258 EBX=13A2BE87 ESP=0018FE18 EBP=0018FF14 ESI=0040C70F EDI=0018FE48 EFLAG=00000206
0040C174	PUSHF                                                     EAX=00000024 ECX=77AE3804 EDX=005A7258 EBX=13A2BE87 ESP=0018FE18 EBP=0018FF14 ESI=0040C70F EDI=0018FE48 EFLAG=00000206
0040C175	PUSHF                                                     EAX=00000024 ECX=77AE3804 EDX=005A7258 EBX=13A2BE87 ESP=0018FE14 EBP=0018FF14 ESI=0040C70F EDI=0018FE48 EFLAG=00000206
0040C176	LEA      ESP, [ESP+0x38]                                  EAX=00000024 ECX=77AE3804 EDX=005A7258 EBX=13A2BE87 ESP=0018FE10 EBP=0018FF14 ESI=0040C70F EDI=0018FE48 EFLAG=00000206
0040BEFD	BSWAP    DX                                               EAX=00000024 ECX=77AE3804 EDX=005A7258 EBX=13A2BE87 ESP=0018FE48 EBP=0018FF14 ESI=0040C70F EDI=0018FE48 EFLAG=00000206
0040BF00	RCL      DL, CL                                           EAX=00000024 ECX=77AE3804 EDX=005A0000 EBX=13A2BE87 ESP=0018FE48 EBP=0018FF14 ESI=0040C70F EDI=0018FE48 EFLAG=00000206
0040BF02	PUSHA                                                     EAX=00000024 ECX=77AE3804 EDX=005A0000 EBX=13A2BE87 ESP=0018FE48 EBP=0018FF14 ESI=0040C70F EDI=0018FE48 EFLAG=00000206
0040BF03	AND      EDX, 0xfdc85d80                                  EAX=00000024 ECX=77AE3804 EDX=005A0000 EBX=13A2BE87 ESP=0018FE28 EBP=0018FF14 ESI=0040C70F EDI=0018FE48 EFLAG=00000206
0040BF09	MOV      AL, [ESI-0x1]                                    EAX=00000024 ECX=77AE3804 EDX=00480000 EBX=13A2BE87 ESP=0018FE28 EBP=0018FF14 ESI=0040C70F EDI=0018FE48 EFLAG=00000206
0040BF0C	DEC      DH                                               EAX=000000D3 ECX=77AE3804 EDX=00480000 EBX=13A2BE87 ESP=0018FE28 EBP=0018FF14 ESI=0040C70F EDI=0018FE48 EFLAG=00000206
0040BF0E	SUB      AL, BL                                           EAX=000000D3 ECX=77AE3804 EDX=0048FF00 EBX=13A2BE87 ESP=0018FE28 EBP=0018FF14 ESI=0040C70F EDI=0018FE48 EFLAG=00000296
0040BF10	PUSHF                                                     EAX=0000004C ECX=77AE3804 EDX=0048FF00 EBX=13A2BE87 ESP=0018FE28 EBP=0018FF14 ESI=0040C70F EDI=0018FE48 EFLAG=00000212
0040BF11	BTC      DX, 0x4                                          EAX=0000004C ECX=77AE3804 EDX=0048FF00 EBX=13A2BE87 ESP=0018FE24 EBP=0018FF14 ESI=0040C70F EDI=0018FE48 EFLAG=00000212
0040BF16	PUSH     ESP                                              EAX=0000004C ECX=77AE3804 EDX=0048FF10 EBX=13A2BE87 ESP=0018FE24 EBP=0018FF14 ESI=0040C70F EDI=0018FE48 EFLAG=00000212
0040BF17	MOVZX    DX, AL                                           EAX=0000004C ECX=77AE3804 EDX=0048FF10 EBX=13A2BE87 ESP=0018FE20 EBP=0018FF14 ESI=0040C70F EDI=0018FE48 EFLAG=00000212
0040BF1B	ROR      AL, 0x7                                          EAX=0000004C ECX=77AE3804 EDX=0048004C EBX=13A2BE87 ESP=0018FE20 EBP=0018FF14 ESI=0040C70F EDI=0018FE48 EFLAG=00000212
0040BF1E	ROL      DH, 0x3                                          EAX=00000098 ECX=77AE3804 EDX=0048004C EBX=13A2BE87 ESP=0018FE20 EBP=0018FF14 ESI=0040C70F EDI=0018FE48 EFLAG=00000A13
0040BF21	SUB      AL, 0x30                                         EAX=00000098 ECX=77AE3804 EDX=0048004C EBX=13A2BE87 ESP=0018FE20 EBP=0018FF14 ESI=0040C70F EDI=0018FE48 EFLAG=00000212
0040BF23	SHR      DX, 0x9                                          EAX=00000068 ECX=77AE3804 EDX=0048004C EBX=13A2BE87 ESP=0018FE20 EBP=0018FF14 ESI=0040C70F EDI=0018FE48 EFLAG=00000A02
0040BF27	XOR      AL, 0xce                                         EAX=00000068 ECX=77AE3804 EDX=00480000 EBX=13A2BE87 ESP=0018FE20 EBP=0018FF14 ESI=0040C70F EDI=0018FE48 EFLAG=00000246
0040BF29	ADC      DL, 0xdb                                         EAX=000000A6 ECX=77AE3804 EDX=00480000 EBX=13A2BE87 ESP=0018FE20 EBP=0018FF14 ESI=0040C70F EDI=0018FE48 EFLAG=00000286
0040BF2C	BT       EBX, EDI                                         EAX=000000A6 ECX=77AE3804 EDX=004800DB EBX=13A2BE87 ESP=0018FE20 EBP=0018FF14 ESI=0040C70F EDI=0018FE48 EFLAG=00000286
0040BF2F	SETL     DH                                               EAX=000000A6 ECX=77AE3804 EDX=004800DB EBX=13A2BE87 ESP=0018FE20 EBP=0018FF14 ESI=0040C70F EDI=0018FE48 EFLAG=00000286
0040BF32	SUB      BL, AL                                           EAX=000000A6 ECX=77AE3804 EDX=004801DB EBX=13A2BE87 ESP=0018FE20 EBP=0018FF14 ESI=0040C70F EDI=0018FE48 EFLAG=00000286
0040BF34	STC                                                       EAX=000000A6 ECX=77AE3804 EDX=004801DB EBX=13A2BEE1 ESP=0018FE20 EBP=0018FF14 ESI=0040C70F EDI=0018FE48 EFLAG=00000287
0040BF35	MOVZX    EAX, AL                                          EAX=000000A6 ECX=77AE3804 EDX=004801DB EBX=13A2BEE1 ESP=0018FE20 EBP=0018FF14 ESI=0040C70F EDI=0018FE48 EFLAG=00000287
0040BF38	NOT      EDX                                              EAX=000000A6 ECX=77AE3804 EDX=004801DB EBX=13A2BEE1 ESP=0018FE20 EBP=0018FF14 ESI=0040C70F EDI=0018FE48 EFLAG=00000287
0040BF3A	BSF      EDX, EDI                                         EAX=000000A6 ECX=77AE3804 EDX=FFB7FE24 EBX=13A2BEE1 ESP=0018FE20 EBP=0018FF14 ESI=0040C70F EDI=0018FE48 EFLAG=00000287
0040BF3E	CMC                                                       EAX=000000A6 ECX=77AE3804 EDX=FFB70003 EBX=13A2BEE1 ESP=0018FE20 EBP=0018FF14 ESI=0040C70F EDI=0018FE48 EFLAG=00000206
0040BF3F	SAL      DH, CL                                           EAX=000000A6 ECX=77AE3804 EDX=FFB70003 EBX=13A2BEE1 ESP=0018FE20 EBP=0018FF14 ESI=0040C70F EDI=0018FE48 EFLAG=00000207
0040BF41	MOV      EDX, [EAX*4+0x40a51f]                            EAX=000000A6 ECX=77AE3804 EDX=FFB70003 EBX=13A2BEE1 ESP=0018FE20 EBP=0018FF14 ESI=0040C70F EDI=0018FE48 EFLAG=00000246
0040BF48	TEST     EDX, 0xe75c2a09                                  EAX=000000A6 ECX=77AE3804 EDX=2BFA6887 EBX=13A2BEE1 ESP=0018FE20 EBP=0018FF14 ESI=0040C70F EDI=0018FE48 EFLAG=00000246
0040BF4E	TEST     BL, DL                                           EAX=000000A6 ECX=77AE3804 EDX=2BFA6887 EBX=13A2BEE1 ESP=0018FE20 EBP=0018FF14 ESI=0040C70F EDI=0018FE48 EFLAG=00000202
0040BF50	SUB      EDX, 0x2bb9b71b                                  EAX=000000A6 ECX=77AE3804 EDX=2BFA6887 EBX=13A2BEE1 ESP=0018FE20 EBP=0018FF14 ESI=0040C70F EDI=0018FE48 EFLAG=00000286
0040BF56	CALL     0x40bd78                                         EAX=000000A6 ECX=77AE3804 EDX=0040B16C EBX=13A2BEE1 ESP=0018FE20 EBP=0018FF14 ESI=0040C70F EDI=0018FE48 EFLAG=00000216
0040BD78	PUSH     EDX                                              EAX=000000A6 ECX=77AE3804 EDX=0040B16C EBX=13A2BEE1 ESP=0018FE1C EBP=0018FF14 ESI=0040C70F EDI=0018FE48 EFLAG=00000216
0040BD79	DEC      ESI                                              EAX=000000A6 ECX=77AE3804 EDX=0040B16C EBX=13A2BEE1 ESP=0018FE18 EBP=0018FF14 ESI=0040C70F EDI=0018FE48 EFLAG=00000216
0040BD7A	PUSHF                                                     EAX=000000A6 ECX=77AE3804 EDX=0040B16C EBX=13A2BEE1 ESP=0018FE18 EBP=0018FF14 ESI=0040C70E EDI=0018FE48 EFLAG=00000202
0040A91F	MOV      [ESP], DH                                        EAX=000000A6 ECX=77AE3804 EDX=0040B16C EBX=13A2BEE1 ESP=0018FE14 EBP=0018FF14 ESI=0040C70E EDI=0018FE48 EFLAG=00000202
0040A922	MOV      [ESP+0x30], EDX                                  EAX=000000A6 ECX=77AE3804 EDX=0040B16C EBX=13A2BEE1 ESP=0018FE14 EBP=0018FF14 ESI=0040C70E EDI=0018FE48 EFLAG=00000202
0040A926	MOV      [ESP], AL                                        EAX=000000A6 ECX=77AE3804 EDX=0040B16C EBX=13A2BEE1 ESP=0018FE14 EBP=0018FF14 ESI=0040C70E EDI=0018FE48 EFLAG=00000202
0040A929	PUSH     DWORD [ESP+0x30]                                 EAX=000000A6 ECX=77AE3804 EDX=0040B16C EBX=13A2BEE1 ESP=0018FE14 EBP=0018FF14 ESI=0040C70E EDI=0018FE48 EFLAG=00000202
0040A92D	RET      0x34                                             EAX=000000A6 ECX=77AE3804 EDX=0040B16C EBX=13A2BEE1 ESP=0018FE10 EBP=0018FF14 ESI=0040C70E EDI=0018FE48 EFLAG=00000202
0040B16C	CALL     0x40bb09                                         EAX=000000A6 ECX=77AE3804 EDX=0040B16C EBX=13A2BEE1 ESP=0018FE48 EBP=0018FF14 ESI=0040C70E EDI=0018FE48 EFLAG=00000202
0040BB09	SUB      DL, AH                                           EAX=000000A6 ECX=77AE3804 EDX=0040B16C EBX=13A2BEE1 ESP=0018FE44 EBP=0018FF14 ESI=0040C70E EDI=0018FE48 EFLAG=00000202
0040BB0B	MOV      AL, [ESI-0x1]                                    EAX=000000A6 ECX=77AE3804 EDX=0040B16C EBX=13A2BEE1 ESP=0018FE44 EBP=0018FF14 ESI=0040C70E EDI=0018FE48 EFLAG=00000206
0040BB0E	LEA      ESP, [ESP+0x4]                                   EAX=000000F8 ECX=77AE3804 EDX=0040B16C EBX=13A2BEE1 ESP=0018FE44 EBP=0018FF14 ESI=0040C70E EDI=0018FE48 EFLAG=00000206
0040BB12	JNP      0x40bd9a                                         EAX=000000F8 ECX=77AE3804 EDX=0040B16C EBX=13A2BEE1 ESP=0018FE48 EBP=0018FF14 ESI=0040C70E EDI=0018FE48 EFLAG=00000206
0040BB18	BSR      EDX, ECX                                         EAX=000000F8 ECX=77AE3804 EDX=0040B16C EBX=13A2BEE1 ESP=0018FE48 EBP=0018FF14 ESI=0040C70E EDI=0018FE48 EFLAG=00000206
0040BB1B	ADD      AL, BL                                           EAX=000000F8 ECX=77AE3804 EDX=0000001E EBX=13A2BEE1 ESP=0018FE48 EBP=0018FF14 ESI=0040C70E EDI=0018FE48 EFLAG=00000206
0040BB1D	PUSH     EDX                                              EAX=000000D9 ECX=77AE3804 EDX=0000001E EBX=13A2BEE1 ESP=0018FE48 EBP=0018FF14 ESI=0040C70E EDI=0018FE48 EFLAG=00000283
0040BB1E	DEC      AL                                               EAX=000000D9 ECX=77AE3804 EDX=0000001E EBX=13A2BEE1 ESP=0018FE44 EBP=0018FF14 ESI=0040C70E EDI=0018FE48 EFLAG=00000283
0040BB20	DEC      DH                                               EAX=000000D8 ECX=77AE3804 EDX=0000001E EBX=13A2BEE1 ESP=0018FE44 EBP=0018FF14 ESI=0040C70E EDI=0018FE48 EFLAG=00000287
0040BB22	NEG      AL                                               EAX=000000D8 ECX=77AE3804 EDX=0000FF1E EBX=13A2BEE1 ESP=0018FE44 EBP=0018FF14 ESI=0040C70E EDI=0018FE48 EFLAG=00000297
0040BB24	CALL     0x40b99f                                         EAX=00000028 ECX=77AE3804 EDX=0000FF1E EBX=13A2BEE1 ESP=0018FE44 EBP=0018FF14 ESI=0040C70E EDI=0018FE48 EFLAG=00000217
0040B99F	BTC      EDX, 0xe                                         EAX=00000028 ECX=77AE3804 EDX=0000FF1E EBX=13A2BEE1 ESP=0018FE40 EBP=0018FF14 ESI=0040C70E EDI=0018FE48 EFLAG=00000217
0040B9A3	MOVZX    EDX, DL                                          EAX=00000028 ECX=77AE3804 EDX=0000BF1E EBX=13A2BEE1 ESP=0018FE40 EBP=0018FF14 ESI=0040C70E EDI=0018FE48 EFLAG=00000217
0040B9A6	CMC                                                       EAX=00000028 ECX=77AE3804 EDX=0000001E EBX=13A2BEE1 ESP=0018FE40 EBP=0018FF14 ESI=0040C70E EDI=0018FE48 EFLAG=00000217
0040B9A7	ROR      AL, 0x1                                          EAX=00000028 ECX=77AE3804 EDX=0000001E EBX=13A2BEE1 ESP=0018FE40 EBP=0018FF14 ESI=0040C70E EDI=0018FE48 EFLAG=00000216
0040B9A9	SBB      DX, 0x612a                                       EAX=00000014 ECX=77AE3804 EDX=0000001E EBX=13A2BEE1 ESP=0018FE40 EBP=0018FF14 ESI=0040C70E EDI=0018FE48 EFLAG=00000216
0040B9AE	ADC      DL, DL                                           EAX=00000014 ECX=77AE3804 EDX=00009EF4 EBX=13A2BEE1 ESP=0018FE40 EBP=0018FF14 ESI=0040C70E EDI=0018FE48 EFLAG=00000283
0040B9B0	ADD      DX, CX                                           EAX=00000014 ECX=77AE3804 EDX=00009EE9 EBX=13A2BEE1 ESP=0018FE40 EBP=0018FF14 ESI=0040C70E EDI=0018FE48 EFLAG=00000283
0040B9B3	BSWAP    DX                                               EAX=00000014 ECX=77AE3804 EDX=0000D6ED EBX=13A2BEE1 ESP=0018FE40 EBP=0018FF14 ESI=0040C70E EDI=0018FE48 EFLAG=00000286
0040B9B6	ADD      BL, AL                                           EAX=00000014 ECX=77AE3804 EDX=00000000 EBX=13A2BEE1 ESP=0018FE40 EBP=0018FF14 ESI=0040C70E EDI=0018FE48 EFLAG=00000286
0040B9B8	AND      EDX, ESP                                         EAX=00000014 ECX=77AE3804 EDX=00000000 EBX=13A2BEF5 ESP=0018FE40 EBP=0018FF14 ESI=0040C70E EDI=0018FE48 EFLAG=00000286
0040B9BA	LEA      ESI, [ESI-0x1]                                   EAX=00000014 ECX=77AE3804 EDX=00000000 EBX=13A2BEF5 ESP=0018FE40 EBP=0018FF14 ESI=0040C70E EDI=0018FE48 EFLAG=00000246
0040B9BD	SHRD     DX, SP, CL                                       EAX=00000014 ECX=77AE3804 EDX=00000000 EBX=13A2BEF5 ESP=0018FE40 EBP=0018FF14 ESI=0040C70D EDI=0018FE48 EFLAG=00000246
0040B9C1	INC      DX                                               EAX=00000014 ECX=77AE3804 EDX=00000000 EBX=13A2BEF5 ESP=0018FE40 EBP=0018FF14 ESI=0040C70D EDI=0018FE48 EFLAG=00000246
0040B9C4	SBB      EDX, EDX                                         EAX=00000014 ECX=77AE3804 EDX=00000001 EBX=13A2BEF5 ESP=0018FE40 EBP=0018FF14 ESI=0040C70D EDI=0018FE48 EFLAG=00000202
0040B9C6	ADD      DX, 0x9dea                                       EAX=00000014 ECX=77AE3804 EDX=00000000 EBX=13A2BEF5 ESP=0018FE40 EBP=0018FF14 ESI=0040C70D EDI=0018FE48 EFLAG=00000246
0040B9CB	MOV      EDX, [EBP+0x0]                                   EAX=00000014 ECX=77AE3804 EDX=00009DEA EBX=13A2BEF5 ESP=0018FE40 EBP=0018FF14 ESI=0040C70D EDI=0018FE48 EFLAG=00000282
0040B9CE	PUSHA                                                     EAX=00000014 ECX=77AE3804 EDX=772341B5 EBX=13A2BEF5 ESP=0018FE40 EBP=0018FF14 ESI=0040C70D EDI=0018FE48 EFLAG=00000282
0040B9CF	STC                                                       EAX=00000014 ECX=77AE3804 EDX=772341B5 EBX=13A2BEF5 ESP=0018FE20 EBP=0018FF14 ESI=0040C70D EDI=0018FE48 EFLAG=00000282
0040B9D0	CALL     0x40c120                                         EAX=00000014 ECX=77AE3804 EDX=772341B5 EBX=13A2BEF5 ESP=0018FE20 EBP=0018FF14 ESI=0040C70D EDI=0018FE48 EFLAG=00000283
0040B3B2	ADD      EBP, 0x4                                         EAX=00000014 ECX=77AE3804 EDX=772341B5 EBX=13A2BEF5 ESP=0018FE1C EBP=0018FF14 ESI=0040C70D EDI=0018FE48 EFLAG=00000283
0040B3B5	CALL     0x40c167                                         EAX=00000014 ECX=77AE3804 EDX=772341B5 EBX=13A2BEF5 ESP=0018FE1C EBP=0018FF18 ESI=0040C70D EDI=0018FE48 EFLAG=00000206
0040C167	MOV      [EAX+EDI], EDX                                   EAX=00000014 ECX=77AE3804 EDX=772341B5 EBX=13A2BEF5 ESP=0018FE18 EBP=0018FF18 ESI=0040C70D EDI=0018FE48 EFLAG=00000206
0040C16A	MOV      WORD [ESP+0x4], 0x4a62                           EAX=00000014 ECX=77AE3804 EDX=772341B5 EBX=13A2BEF5 ESP=0018FE18 EBP=0018FF18 ESI=0040C70D EDI=0018FE48 EFLAG=00000206
0040C171	MOV      [ESP], DH                                        EAX=00000014 ECX=77AE3804 EDX=772341B5 EBX=13A2BEF5 ESP=0018FE18 EBP=0018FF18 ESI=0040C70D EDI=0018FE48 EFLAG=00000206
0040C174	PUSHF                                                     EAX=00000014 ECX=77AE3804 EDX=772341B5 EBX=13A2BEF5 ESP=0018FE18 EBP=0018FF18 ESI=0040C70D EDI=0018FE48 EFLAG=00000206
0040C175	PUSHF                                                     EAX=00000014 ECX=77AE3804 EDX=772341B5 EBX=13A2BEF5 ESP=0018FE14 EBP=0018FF18 ESI=0040C70D EDI=0018FE48 EFLAG=00000206
0040C176	LEA      ESP, [ESP+0x38]                                  EAX=00000014 ECX=77AE3804 EDX=772341B5 EBX=13A2BEF5 ESP=0018FE10 EBP=0018FF18 ESI=0040C70D EDI=0018FE48 EFLAG=00000206
0040BEFD	BSWAP    DX                                               EAX=00000014 ECX=77AE3804 EDX=772341B5 EBX=13A2BEF5 ESP=0018FE48 EBP=0018FF18 ESI=0040C70D EDI=0018FE48 EFLAG=00000206
0040BF00	RCL      DL, CL                                           EAX=00000014 ECX=77AE3804 EDX=77230000 EBX=13A2BEF5 ESP=0018FE48 EBP=0018FF18 ESI=0040C70D EDI=0018FE48 EFLAG=00000206
0040BF02	PUSHA                                                     EAX=00000014 ECX=77AE3804 EDX=77230000 EBX=13A2BEF5 ESP=0018FE48 EBP=0018FF18 ESI=0040C70D EDI=0018FE48 EFLAG=00000206
0040BF03	AND      EDX, 0xfdc85d80                                  EAX=00000014 ECX=77AE3804 EDX=77230000 EBX=13A2BEF5 ESP=0018FE28 EBP=0018FF18 ESI=0040C70D EDI=0018FE48 EFLAG=00000206
0040BF09	MOV      AL, [ESI-0x1]                                    EAX=00000014 ECX=77AE3804 EDX=75000000 EBX=13A2BEF5 ESP=0018FE28 EBP=0018FF18 ESI=0040C70D EDI=0018FE48 EFLAG=00000206
0040BF0C	DEC      DH                                               EAX=000000ED ECX=77AE3804 EDX=75000000 EBX=13A2BEF5 ESP=0018FE28 EBP=0018FF18 ESI=0040C70D EDI=0018FE48 EFLAG=00000206
0040BF0E	SUB      AL, BL                                           EAX=000000ED ECX=77AE3804 EDX=7500FF00 EBX=13A2BEF5 ESP=0018FE28 EBP=0018FF18 ESI=0040C70D EDI=0018FE48 EFLAG=00000296
0040BF10	PUSHF                                                     EAX=000000F8 ECX=77AE3804 EDX=7500FF00 EBX=13A2BEF5 ESP=0018FE28 EBP=0018FF18 ESI=0040C70D EDI=0018FE48 EFLAG=00000283
0040BF11	BTC      DX, 0x4                                          EAX=000000F8 ECX=77AE3804 EDX=7500FF00 EBX=13A2BEF5 ESP=0018FE24 EBP=0018FF18 ESI=0040C70D EDI=0018FE48 EFLAG=00000283
0040BF16	PUSH     ESP                                              EAX=000000F8 ECX=77AE3804 EDX=7500FF10 EBX=13A2BEF5 ESP=0018FE24 EBP=0018FF18 ESI=0040C70D EDI=0018FE48 EFLAG=00000282
0040BF17	MOVZX    DX, AL                                           EAX=000000F8 ECX=77AE3804 EDX=7500FF10 EBX=13A2BEF5 ESP=0018FE20 EBP=0018FF18 ESI=0040C70D EDI=0018FE48 EFLAG=00000282
0040BF1B	ROR      AL, 0x7                                          EAX=000000F8 ECX=77AE3804 EDX=750000F8 EBX=13A2BEF5 ESP=0018FE20 EBP=0018FF18 ESI=0040C70D EDI=0018FE48 EFLAG=00000282
0040BF1E	ROL      DH, 0x3                                          EAX=000000F1 ECX=77AE3804 EDX=750000F8 EBX=13A2BEF5 ESP=0018FE20 EBP=0018FF18 ESI=0040C70D EDI=0018FE48 EFLAG=00000283
0040BF21	SUB      AL, 0x30                                         EAX=000000F1 ECX=77AE3804 EDX=750000F8 EBX=13A2BEF5 ESP=0018FE20 EBP=0018FF18 ESI=0040C70D EDI=0018FE48 EFLAG=00000282
0040BF23	SHR      DX, 0x9                                          EAX=000000C1 ECX=77AE3804 EDX=750000F8 EBX=13A2BEF5 ESP=0018FE20 EBP=0018FF18 ESI=0040C70D EDI=0018FE48 EFLAG=00000282
0040BF27	XOR      AL, 0xce                                         EAX=000000C1 ECX=77AE3804 EDX=75000000 EBX=13A2BEF5 ESP=0018FE20 EBP=0018FF18 ESI=0040C70D EDI=0018FE48 EFLAG=00000246
0040BF29	ADC      DL, 0xdb                                         EAX=0000000F ECX=77AE3804 EDX=75000000 EBX=13A2BEF5 ESP=0018FE20 EBP=0018FF18 ESI=0040C70D EDI=0018FE48 EFLAG=00000206
0040BF2C	BT       EBX, EDI                                         EAX=0000000F ECX=77AE3804 EDX=750000DB EBX=13A2BEF5 ESP=0018FE20 EBP=0018FF18 ESI=0040C70D EDI=0018FE48 EFLAG=00000286
0040BF2F	SETL     DH                                               EAX=0000000F ECX=77AE3804 EDX=750000DB EBX=13A2BEF5 ESP=0018FE20 EBP=0018FF18 ESI=0040C70D EDI=0018FE48 EFLAG=00000286
0040BF32	SUB      BL, AL                                           EAX=0000000F ECX=77AE3804 EDX=750001DB EBX=13A2BEF5 ESP=0018FE20 EBP=0018FF18 ESI=0040C70D EDI=0018FE48 EFLAG=00000286
0040BF34	STC                                                       EAX=0000000F ECX=77AE3804 EDX=750001DB EBX=13A2BEE6 ESP=0018FE20 EBP=0018FF18 ESI=0040C70D EDI=0018FE48 EFLAG=00000292
0040BF35	MOVZX    EAX, AL                                          EAX=0000000F ECX=77AE3804 EDX=750001DB EBX=13A2BEE6 ESP=0018FE20 EBP=0018FF18 ESI=0040C70D EDI=0018FE48 EFLAG=00000293
0040BF38	NOT      EDX                                              EAX=0000000F ECX=77AE3804 EDX=750001DB EBX=13A2BEE6 ESP=0018FE20 EBP=0018FF18 ESI=0040C70D EDI=0018FE48 EFLAG=00000293
0040BF3A	BSF      EDX, EDI                                         EAX=0000000F ECX=77AE3804 EDX=8AFFFE24 EBX=13A2BEE6 ESP=0018FE20 EBP=0018FF18 ESI=0040C70D EDI=0018FE48 EFLAG=00000293
0040BF3E	CMC                                                       EAX=0000000F ECX=77AE3804 EDX=8AFF0003 EBX=13A2BEE6 ESP=0018FE20 EBP=0018FF18 ESI=0040C70D EDI=0018FE48 EFLAG=00000206
0040BF3F	SAL      DH, CL                                           EAX=0000000F ECX=77AE3804 EDX=8AFF0003 EBX=13A2BEE6 ESP=0018FE20 EBP=0018FF18 ESI=0040C70D EDI=0018FE48 EFLAG=00000207
0040BF41	MOV      EDX, [EAX*4+0x40a51f]                            EAX=0000000F ECX=77AE3804 EDX=8AFF0003 EBX=13A2BEE6 ESP=0018FE20 EBP=0018FF18 ESI=0040C70D EDI=0018FE48 EFLAG=00000246
0040BF48	TEST     EDX, 0xe75c2a09                                  EAX=0000000F ECX=77AE3804 EDX=2BFA6887 EBX=13A2BEE6 ESP=0018FE20 EBP=0018FF18 ESI=0040C70D EDI=0018FE48 EFLAG=00000246
0040BF4E	TEST     BL, DL                                           EAX=0000000F ECX=77AE3804 EDX=2BFA6887 EBX=13A2BEE6 ESP=0018FE20 EBP=0018FF18 ESI=0040C70D EDI=0018FE48 EFLAG=00000202
0040BF50	SUB      EDX, 0x2bb9b71b                                  EAX=0000000F ECX=77AE3804 EDX=2BFA6887 EBX=13A2BEE6 ESP=0018FE20 EBP=0018FF18 ESI=0040C70D EDI=0018FE48 EFLAG=00000282
0040BF56	CALL     0x40bd78                                         EAX=0000000F ECX=77AE3804 EDX=0040B16C EBX=13A2BEE6 ESP=0018FE20 EBP=0018FF18 ESI=0040C70D EDI=0018FE48 EFLAG=00000216
0040BD78	PUSH     EDX                                              EAX=0000000F ECX=77AE3804 EDX=0040B16C EBX=13A2BEE6 ESP=0018FE1C EBP=0018FF18 ESI=0040C70D EDI=0018FE48 EFLAG=00000216
0040BD79	DEC      ESI                                              EAX=0000000F ECX=77AE3804 EDX=0040B16C EBX=13A2BEE6 ESP=0018FE18 EBP=0018FF18 ESI=0040C70D EDI=0018FE48 EFLAG=00000216
0040BD7A	PUSHF                                                     EAX=0000000F ECX=77AE3804 EDX=0040B16C EBX=13A2BEE6 ESP=0018FE18 EBP=0018FF18 ESI=0040C70C EDI=0018FE48 EFLAG=00000206
0040A91F	MOV      [ESP], DH                                        EAX=0000000F ECX=77AE3804 EDX=0040B16C EBX=13A2BEE6 ESP=0018FE14 EBP=0018FF18 ESI=0040C70C EDI=0018FE48 EFLAG=00000206
0040A922	MOV      [ESP+0x30], EDX                                  EAX=0000000F ECX=77AE3804 EDX=0040B16C EBX=13A2BEE6 ESP=0018FE14 EBP=0018FF18 ESI=0040C70C EDI=0018FE48 EFLAG=00000206
0040A926	MOV      [ESP], AL                                        EAX=0000000F ECX=77AE3804 EDX=0040B16C EBX=13A2BEE6 ESP=0018FE14 EBP=0018FF18 ESI=0040C70C EDI=0018FE48 EFLAG=00000206
0040A929	PUSH     DWORD [ESP+0x30]                                 EAX=0000000F ECX=77AE3804 EDX=0040B16C EBX=13A2BEE6 ESP=0018FE14 EBP=0018FF18 ESI=0040C70C EDI=0018FE48 EFLAG=00000206
0040A92D	RET      0x34                                             EAX=0000000F ECX=77AE3804 EDX=0040B16C EBX=13A2BEE6 ESP=0018FE10 EBP=0018FF18 ESI=0040C70C EDI=0018FE48 EFLAG=00000206
0040B16C	CALL     0x40bb09                                         EAX=0000000F ECX=77AE3804 EDX=0040B16C EBX=13A2BEE6 ESP=0018FE48 EBP=0018FF18 ESI=0040C70C EDI=0018FE48 EFLAG=00000206
0040BB09	SUB      DL, AH                                           EAX=0000000F ECX=77AE3804 EDX=0040B16C EBX=13A2BEE6 ESP=0018FE44 EBP=0018FF18 ESI=0040C70C EDI=0018FE48 EFLAG=00000206
0040BB0B	MOV      AL, [ESI-0x1]                                    EAX=0000000F ECX=77AE3804 EDX=0040B16C EBX=13A2BEE6 ESP=0018FE44 EBP=0018FF18 ESI=0040C70C EDI=0018FE48 EFLAG=00000206
0040BB0E	LEA      ESP, [ESP+0x4]                                   EAX=000000A3 ECX=77AE3804 EDX=0040B16C EBX=13A2BEE6 ESP=0018FE44 EBP=0018FF18 ESI=0040C70C EDI=0018FE48 EFLAG=00000206
0040BB12	JNP      0x40bd9a                                         EAX=000000A3 ECX=77AE3804 EDX=0040B16C EBX=13A2BEE6 ESP=0018FE48 EBP=0018FF18 ESI=0040C70C EDI=0018FE48 EFLAG=00000206
0040BB18	BSR      EDX, ECX                                         EAX=000000A3 ECX=77AE3804 EDX=0040B16C EBX=13A2BEE6 ESP=0018FE48 EBP=0018FF18 ESI=0040C70C EDI=0018FE48 EFLAG=00000206
0040BB1B	ADD      AL, BL                                           EAX=000000A3 ECX=77AE3804 EDX=0000001E EBX=13A2BEE6 ESP=0018FE48 EBP=0018FF18 ESI=0040C70C EDI=0018FE48 EFLAG=00000206
0040BB1D	PUSH     EDX                                              EAX=00000089 ECX=77AE3804 EDX=0000001E EBX=13A2BEE6 ESP=0018FE48 EBP=0018FF18 ESI=0040C70C EDI=0018FE48 EFLAG=00000283
0040BB1E	DEC      AL                                               EAX=00000089 ECX=77AE3804 EDX=0000001E EBX=13A2BEE6 ESP=0018FE44 EBP=0018FF18 ESI=0040C70C EDI=0018FE48 EFLAG=00000283
0040BB20	DEC      DH                                               EAX=00000088 ECX=77AE3804 EDX=0000001E EBX=13A2BEE6 ESP=0018FE44 EBP=0018FF18 ESI=0040C70C EDI=0018FE48 EFLAG=00000287
0040BB22	NEG      AL                                               EAX=00000088 ECX=77AE3804 EDX=0000FF1E EBX=13A2BEE6 ESP=0018FE44 EBP=0018FF18 ESI=0040C70C EDI=0018FE48 EFLAG=00000297
0040BB24	CALL     0x40b99f                                         EAX=00000078 ECX=77AE3804 EDX=0000FF1E EBX=13A2BEE6 ESP=0018FE44 EBP=0018FF18 ESI=0040C70C EDI=0018FE48 EFLAG=00000217
0040B99F	BTC      EDX, 0xe                                         EAX=00000078 ECX=77AE3804 EDX=0000FF1E EBX=13A2BEE6 ESP=0018FE40 EBP=0018FF18 ESI=0040C70C EDI=0018FE48 EFLAG=00000217
0040B9A3	MOVZX    EDX, DL                                          EAX=00000078 ECX=77AE3804 EDX=0000BF1E EBX=13A2BEE6 ESP=0018FE40 EBP=0018FF18 ESI=0040C70C EDI=0018FE48 EFLAG=00000217
0040B9A6	CMC                                                       EAX=00000078 ECX=77AE3804 EDX=0000001E EBX=13A2BEE6 ESP=0018FE40 EBP=0018FF18 ESI=0040C70C EDI=0018FE48 EFLAG=00000217
0040B9A7	ROR      AL, 0x1                                          EAX=00000078 ECX=77AE3804 EDX=0000001E EBX=13A2BEE6 ESP=0018FE40 EBP=0018FF18 ESI=0040C70C EDI=0018FE48 EFLAG=00000216
0040B9A9	SBB      DX, 0x612a                                       EAX=0000003C ECX=77AE3804 EDX=0000001E EBX=13A2BEE6 ESP=0018FE40 EBP=0018FF18 ESI=0040C70C EDI=0018FE48 EFLAG=00000216
0040B9AE	ADC      DL, DL                                           EAX=0000003C ECX=77AE3804 EDX=00009EF4 EBX=13A2BEE6 ESP=0018FE40 EBP=0018FF18 ESI=0040C70C EDI=0018FE48 EFLAG=00000283
0040B9B0	ADD      DX, CX                                           EAX=0000003C ECX=77AE3804 EDX=00009EE9 EBX=13A2BEE6 ESP=0018FE40 EBP=0018FF18 ESI=0040C70C EDI=0018FE48 EFLAG=00000283
0040B9B3	BSWAP    DX                                               EAX=0000003C ECX=77AE3804 EDX=0000D6ED EBX=13A2BEE6 ESP=0018FE40 EBP=0018FF18 ESI=0040C70C EDI=0018FE48 EFLAG=00000286
0040B9B6	ADD      BL, AL                                           EAX=0000003C ECX=77AE3804 EDX=00000000 EBX=13A2BEE6 ESP=0018FE40 EBP=0018FF18 ESI=0040C70C EDI=0018FE48 EFLAG=00000286
0040B9B8	AND      EDX, ESP                                         EAX=0000003C ECX=77AE3804 EDX=00000000 EBX=13A2BE22 ESP=0018FE40 EBP=0018FF18 ESI=0040C70C EDI=0018FE48 EFLAG=00000217
0040B9BA	LEA      ESI, [ESI-0x1]                                   EAX=0000003C ECX=77AE3804 EDX=00000000 EBX=13A2BE22 ESP=0018FE40 EBP=0018FF18 ESI=0040C70C EDI=0018FE48 EFLAG=00000246
0040B9BD	SHRD     DX, SP, CL                                       EAX=0000003C ECX=77AE3804 EDX=00000000 EBX=13A2BE22 ESP=0018FE40 EBP=0018FF18 ESI=0040C70B EDI=0018FE48 EFLAG=00000246
0040B9C1	INC      DX                                               EAX=0000003C ECX=77AE3804 EDX=00000000 EBX=13A2BE22 ESP=0018FE40 EBP=0018FF18 ESI=0040C70B EDI=0018FE48 EFLAG=00000246
0040B9C4	SBB      EDX, EDX                                         EAX=0000003C ECX=77AE3804 EDX=00000001 EBX=13A2BE22 ESP=0018FE40 EBP=0018FF18 ESI=0040C70B EDI=0018FE48 EFLAG=00000202
0040B9C6	ADD      DX, 0x9dea                                       EAX=0000003C ECX=77AE3804 EDX=00000000 EBX=13A2BE22 ESP=0018FE40 EBP=0018FF18 ESI=0040C70B EDI=0018FE48 EFLAG=00000246
0040B9CB	MOV      EDX, [EBP+0x0]                                   EAX=0000003C ECX=77AE3804 EDX=00009DEA EBX=13A2BE22 ESP=0018FE40 EBP=0018FF18 ESI=0040C70B EDI=0018FE48 EFLAG=00000282
0040B9CE	PUSHA                                                     EAX=0000003C ECX=77AE3804 EDX=00000246 EBX=13A2BE22 ESP=0018FE40 EBP=0018FF18 ESI=0040C70B EDI=0018FE48 EFLAG=00000282
0040B9CF	STC                                                       EAX=0000003C ECX=77AE3804 EDX=00000246 EBX=13A2BE22 ESP=0018FE20 EBP=0018FF18 ESI=0040C70B EDI=0018FE48 EFLAG=00000282
0040B9D0	CALL     0x40c120                                         EAX=0000003C ECX=77AE3804 EDX=00000246 EBX=13A2BE22 ESP=0018FE20 EBP=0018FF18 ESI=0040C70B EDI=0018FE48 EFLAG=00000283
0040B3B2	ADD      EBP, 0x4                                         EAX=0000003C ECX=77AE3804 EDX=00000246 EBX=13A2BE22 ESP=0018FE1C EBP=0018FF18 ESI=0040C70B EDI=0018FE48 EFLAG=00000283
0040B3B5	CALL     0x40c167                                         EAX=0000003C ECX=77AE3804 EDX=00000246 EBX=13A2BE22 ESP=0018FE1C EBP=0018FF1C ESI=0040C70B EDI=0018FE48 EFLAG=00000202
0040C167	MOV      [EAX+EDI], EDX                                   EAX=0000003C ECX=77AE3804 EDX=00000246 EBX=13A2BE22 ESP=0018FE18 EBP=0018FF1C ESI=0040C70B EDI=0018FE48 EFLAG=00000202
0040C16A	MOV      WORD [ESP+0x4], 0x4a62                           EAX=0000003C ECX=77AE3804 EDX=00000246 EBX=13A2BE22 ESP=0018FE18 EBP=0018FF1C ESI=0040C70B EDI=0018FE48 EFLAG=00000202
0040C171	MOV      [ESP], DH                                        EAX=0000003C ECX=77AE3804 EDX=00000246 EBX=13A2BE22 ESP=0018FE18 EBP=0018FF1C ESI=0040C70B EDI=0018FE48 EFLAG=00000202
0040C174	PUSHF                                                     EAX=0000003C ECX=77AE3804 EDX=00000246 EBX=13A2BE22 ESP=0018FE18 EBP=0018FF1C ESI=0040C70B EDI=0018FE48 EFLAG=00000202
0040C175	PUSHF                                                     EAX=0000003C ECX=77AE3804 EDX=00000246 EBX=13A2BE22 ESP=0018FE14 EBP=0018FF1C ESI=0040C70B EDI=0018FE48 EFLAG=00000202
0040C176	LEA      ESP, [ESP+0x38]                                  EAX=0000003C ECX=77AE3804 EDX=00000246 EBX=13A2BE22 ESP=0018FE10 EBP=0018FF1C ESI=0040C70B EDI=0018FE48 EFLAG=00000202
0040BEFD	BSWAP    DX                                               EAX=0000003C ECX=77AE3804 EDX=00000246 EBX=13A2BE22 ESP=0018FE48 EBP=0018FF1C ESI=0040C70B EDI=0018FE48 EFLAG=00000202
0040BF00	RCL      DL, CL                                           EAX=0000003C ECX=77AE3804 EDX=00000000 EBX=13A2BE22 ESP=0018FE48 EBP=0018FF1C ESI=0040C70B EDI=0018FE48 EFLAG=00000202
0040BF02	PUSHA                                                     EAX=0000003C ECX=77AE3804 EDX=00000000 EBX=13A2BE22 ESP=0018FE48 EBP=0018FF1C ESI=0040C70B EDI=0018FE48 EFLAG=00000202
0040BF03	AND      EDX, 0xfdc85d80                                  EAX=0000003C ECX=77AE3804 EDX=00000000 EBX=13A2BE22 ESP=0018FE28 EBP=0018FF1C ESI=0040C70B EDI=0018FE48 EFLAG=00000202
0040BF09	MOV      AL, [ESI-0x1]                                    EAX=0000003C ECX=77AE3804 EDX=00000000 EBX=13A2BE22 ESP=0018FE28 EBP=0018FF1C ESI=0040C70B EDI=0018FE48 EFLAG=00000246
0040BF0C	DEC      DH                                               EAX=00000056 ECX=77AE3804 EDX=00000000 EBX=13A2BE22 ESP=0018FE28 EBP=0018FF1C ESI=0040C70B EDI=0018FE48 EFLAG=00000246
0040BF0E	SUB      AL, BL                                           EAX=00000056 ECX=77AE3804 EDX=0000FF00 EBX=13A2BE22 ESP=0018FE28 EBP=0018FF1C ESI=0040C70B EDI=0018FE48 EFLAG=00000296
0040BF10	PUSHF                                                     EAX=00000034 ECX=77AE3804 EDX=0000FF00 EBX=13A2BE22 ESP=0018FE28 EBP=0018FF1C ESI=0040C70B EDI=0018FE48 EFLAG=00000202
0040BF11	BTC      DX, 0x4                                          EAX=00000034 ECX=77AE3804 EDX=0000FF00 EBX=13A2BE22 ESP=0018FE24 EBP=0018FF1C ESI=0040C70B EDI=0018FE48 EFLAG=00000202
0040BF16	PUSH     ESP                                              EAX=00000034 ECX=77AE3804 EDX=0000FF10 EBX=13A2BE22 ESP=0018FE24 EBP=0018FF1C ESI=0040C70B EDI=0018FE48 EFLAG=00000202
0040BF17	MOVZX    DX, AL                                           EAX=00000034 ECX=77AE3804 EDX=0000FF10 EBX=13A2BE22 ESP=0018FE20 EBP=0018FF1C ESI=0040C70B EDI=0018FE48 EFLAG=00000202
0040BF1B	ROR      AL, 0x7                                          EAX=00000034 ECX=77AE3804 EDX=00000034 EBX=13A2BE22 ESP=0018FE20 EBP=0018FF1C ESI=0040C70B EDI=0018FE48 EFLAG=00000202
0040BF1E	ROL      DH, 0x3                                          EAX=00000068 ECX=77AE3804 EDX=00000034 EBX=13A2BE22 ESP=0018FE20 EBP=0018FF1C ESI=0040C70B EDI=0018FE48 EFLAG=00000A02
0040BF21	SUB      AL, 0x30                                         EAX=00000068 ECX=77AE3804 EDX=00000034 EBX=13A2BE22 ESP=0018FE20 EBP=0018FF1C ESI=0040C70B EDI=0018FE48 EFLAG=00000202
0040BF23	SHR      DX, 0x9                                          EAX=00000038 ECX=77AE3804 EDX=00000034 EBX=13A2BE22 ESP=0018FE20 EBP=0018FF1C ESI=0040C70B EDI=0018FE48 EFLAG=00000202
0040BF27	XOR      AL, 0xce                                         EAX=00000038 ECX=77AE3804 EDX=00000000 EBX=13A2BE22 ESP=0018FE20 EBP=0018FF1C ESI=0040C70B EDI=0018FE48 EFLAG=00000246
0040BF29	ADC      DL, 0xdb                                         EAX=000000F6 ECX=77AE3804 EDX=00000000 EBX=13A2BE22 ESP=0018FE20 EBP=0018FF1C ESI=0040C70B EDI=0018FE48 EFLAG=00000286
0040BF2C	BT       EBX, EDI                                         EAX=000000F6 ECX=77AE3804 EDX=000000DB EBX=13A2BE22 ESP=0018FE20 EBP=0018FF1C ESI=0040C70B EDI=0018FE48 EFLAG=00000286
0040BF2F	SETL     DH                                               EAX=000000F6 ECX=77AE3804 EDX=000000DB EBX=13A2BE22 ESP=0018FE20 EBP=0018FF1C ESI=0040C70B EDI=0018FE48 EFLAG=00000286
0040BF32	SUB      BL, AL                                           EAX=000000F6 ECX=77AE3804 EDX=000001DB EBX=13A2BE22 ESP=0018FE20 EBP=0018FF1C ESI=0040C70B EDI=0018FE48 EFLAG=00000286
0040BF34	STC                                                       EAX=000000F6 ECX=77AE3804 EDX=000001DB EBX=13A2BE2C ESP=0018FE20 EBP=0018FF1C ESI=0040C70B EDI=0018FE48 EFLAG=00000213
0040BF35	MOVZX    EAX, AL                                          EAX=000000F6 ECX=77AE3804 EDX=000001DB EBX=13A2BE2C ESP=0018FE20 EBP=0018FF1C ESI=0040C70B EDI=0018FE48 EFLAG=00000213
0040BF38	NOT      EDX                                              EAX=000000F6 ECX=77AE3804 EDX=000001DB EBX=13A2BE2C ESP=0018FE20 EBP=0018FF1C ESI=0040C70B EDI=0018FE48 EFLAG=00000213
0040BF3A	BSF      EDX, EDI                                         EAX=000000F6 ECX=77AE3804 EDX=FFFFFE24 EBX=13A2BE2C ESP=0018FE20 EBP=0018FF1C ESI=0040C70B EDI=0018FE48 EFLAG=00000213
0040BF3E	CMC                                                       EAX=000000F6 ECX=77AE3804 EDX=FFFF0003 EBX=13A2BE2C ESP=0018FE20 EBP=0018FF1C ESI=0040C70B EDI=0018FE48 EFLAG=00000206
0040BF3F	SAL      DH, CL                                           EAX=000000F6 ECX=77AE3804 EDX=FFFF0003 EBX=13A2BE2C ESP=0018FE20 EBP=0018FF1C ESI=0040C70B EDI=0018FE48 EFLAG=00000207
0040BF41	MOV      EDX, [EAX*4+0x40a51f]                            EAX=000000F6 ECX=77AE3804 EDX=FFFF0003 EBX=13A2BE2C ESP=0018FE20 EBP=0018FF1C ESI=0040C70B EDI=0018FE48 EFLAG=00000246
0040BF48	TEST     EDX, 0xe75c2a09                                  EAX=000000F6 ECX=77AE3804 EDX=2BFA6887 EBX=13A2BE2C ESP=0018FE20 EBP=0018FF1C ESI=0040C70B EDI=0018FE48 EFLAG=00000246
0040BF4E	TEST     BL, DL                                           EAX=000000F6 ECX=77AE3804 EDX=2BFA6887 EBX=13A2BE2C ESP=0018FE20 EBP=0018FF1C ESI=0040C70B EDI=0018FE48 EFLAG=00000202
0040BF50	SUB      EDX, 0x2bb9b71b                                  EAX=000000F6 ECX=77AE3804 EDX=2BFA6887 EBX=13A2BE2C ESP=0018FE20 EBP=0018FF1C ESI=0040C70B EDI=0018FE48 EFLAG=00000202
0040BF56	CALL     0x40bd78                                         EAX=000000F6 ECX=77AE3804 EDX=0040B16C EBX=13A2BE2C ESP=0018FE20 EBP=0018FF1C ESI=0040C70B EDI=0018FE48 EFLAG=00000216
0040BD78	PUSH     EDX                                              EAX=000000F6 ECX=77AE3804 EDX=0040B16C EBX=13A2BE2C ESP=0018FE1C EBP=0018FF1C ESI=0040C70B EDI=0018FE48 EFLAG=00000216
0040BD79	DEC      ESI                                              EAX=000000F6 ECX=77AE3804 EDX=0040B16C EBX=13A2BE2C ESP=0018FE18 EBP=0018FF1C ESI=0040C70B EDI=0018FE48 EFLAG=00000216
0040BD7A	PUSHF                                                     EAX=000000F6 ECX=77AE3804 EDX=0040B16C EBX=13A2BE2C ESP=0018FE18 EBP=0018FF1C ESI=0040C70A EDI=0018FE48 EFLAG=00000206
0040A91F	MOV      [ESP], DH                                        EAX=000000F6 ECX=77AE3804 EDX=0040B16C EBX=13A2BE2C ESP=0018FE14 EBP=0018FF1C ESI=0040C70A EDI=0018FE48 EFLAG=00000206
0040A922	MOV      [ESP+0x30], EDX                                  EAX=000000F6 ECX=77AE3804 EDX=0040B16C EBX=13A2BE2C ESP=0018FE14 EBP=0018FF1C ESI=0040C70A EDI=0018FE48 EFLAG=00000206
0040A926	MOV      [ESP], AL                                        EAX=000000F6 ECX=77AE3804 EDX=0040B16C EBX=13A2BE2C ESP=0018FE14 EBP=0018FF1C ESI=0040C70A EDI=0018FE48 EFLAG=00000206
0040A929	PUSH     DWORD [ESP+0x30]                                 EAX=000000F6 ECX=77AE3804 EDX=0040B16C EBX=13A2BE2C ESP=0018FE14 EBP=0018FF1C ESI=0040C70A EDI=0018FE48 EFLAG=00000206
0040A92D	RET      0x34                                             EAX=000000F6 ECX=77AE3804 EDX=0040B16C EBX=13A2BE2C ESP=0018FE10 EBP=0018FF1C ESI=0040C70A EDI=0018FE48 EFLAG=00000206
0040B16C	CALL     0x40bb09                                         EAX=000000F6 ECX=77AE3804 EDX=0040B16C EBX=13A2BE2C ESP=0018FE48 EBP=0018FF1C ESI=0040C70A EDI=0018FE48 EFLAG=00000206
0040BB09	SUB      DL, AH                                           EAX=000000F6 ECX=77AE3804 EDX=0040B16C EBX=13A2BE2C ESP=0018FE44 EBP=0018FF1C ESI=0040C70A EDI=0018FE48 EFLAG=00000206
0040BB0B	MOV      AL, [ESI-0x1]                                    EAX=000000F6 ECX=77AE3804 EDX=0040B16C EBX=13A2BE2C ESP=0018FE44 EBP=0018FF1C ESI=0040C70A EDI=0018FE48 EFLAG=00000206
0040BB0E	LEA      ESP, [ESP+0x4]                                   EAX=000000BD ECX=77AE3804 EDX=0040B16C EBX=13A2BE2C ESP=0018FE44 EBP=0018FF1C ESI=0040C70A EDI=0018FE48 EFLAG=00000206
0040BB12	JNP      0x40bd9a                                         EAX=000000BD ECX=77AE3804 EDX=0040B16C EBX=13A2BE2C ESP=0018FE48 EBP=0018FF1C ESI=0040C70A EDI=0018FE48 EFLAG=00000206
0040BB18	BSR      EDX, ECX                                         EAX=000000BD ECX=77AE3804 EDX=0040B16C EBX=13A2BE2C ESP=0018FE48 EBP=0018FF1C ESI=0040C70A EDI=0018FE48 EFLAG=00000206
0040BB1B	ADD      AL, BL                                           EAX=000000BD ECX=77AE3804 EDX=0000001E EBX=13A2BE2C ESP=0018FE48 EBP=0018FF1C ESI=0040C70A EDI=0018FE48 EFLAG=00000206
0040BB1D	PUSH     EDX                                              EAX=000000E9 ECX=77AE3804 EDX=0000001E EBX=13A2BE2C ESP=0018FE48 EBP=0018FF1C ESI=0040C70A EDI=0018FE48 EFLAG=00000292
0040BB1E	DEC      AL                                               EAX=000000E9 ECX=77AE3804 EDX=0000001E EBX=13A2BE2C ESP=0018FE44 EBP=0018FF1C ESI=0040C70A EDI=0018FE48 EFLAG=00000292
0040BB20	DEC      DH                                               EAX=000000E8 ECX=77AE3804 EDX=0000001E EBX=13A2BE2C ESP=0018FE44 EBP=0018FF1C ESI=0040C70A EDI=0018FE48 EFLAG=00000286
0040BB22	NEG      AL                                               EAX=000000E8 ECX=77AE3804 EDX=0000FF1E EBX=13A2BE2C ESP=0018FE44 EBP=0018FF1C ESI=0040C70A EDI=0018FE48 EFLAG=00000296
0040BB24	CALL     0x40b99f                                         EAX=00000018 ECX=77AE3804 EDX=0000FF1E EBX=13A2BE2C ESP=0018FE44 EBP=0018FF1C ESI=0040C70A EDI=0018FE48 EFLAG=00000217
0040B99F	BTC      EDX, 0xe                                         EAX=00000018 ECX=77AE3804 EDX=0000FF1E EBX=13A2BE2C ESP=0018FE40 EBP=0018FF1C ESI=0040C70A EDI=0018FE48 EFLAG=00000217
0040B9A3	MOVZX    EDX, DL                                          EAX=00000018 ECX=77AE3804 EDX=0000BF1E EBX=13A2BE2C ESP=0018FE40 EBP=0018FF1C ESI=0040C70A EDI=0018FE48 EFLAG=00000217
0040B9A6	CMC                                                       EAX=00000018 ECX=77AE3804 EDX=0000001E EBX=13A2BE2C ESP=0018FE40 EBP=0018FF1C ESI=0040C70A EDI=0018FE48 EFLAG=00000217
0040B9A7	ROR      AL, 0x1                                          EAX=00000018 ECX=77AE3804 EDX=0000001E EBX=13A2BE2C ESP=0018FE40 EBP=0018FF1C ESI=0040C70A EDI=0018FE48 EFLAG=00000216
0040B9A9	SBB      DX, 0x612a                                       EAX=0000000C ECX=77AE3804 EDX=0000001E EBX=13A2BE2C ESP=0018FE40 EBP=0018FF1C ESI=0040C70A EDI=0018FE48 EFLAG=00000216
0040B9AE	ADC      DL, DL                                           EAX=0000000C ECX=77AE3804 EDX=00009EF4 EBX=13A2BE2C ESP=0018FE40 EBP=0018FF1C ESI=0040C70A EDI=0018FE48 EFLAG=00000283
0040B9B0	ADD      DX, CX                                           EAX=0000000C ECX=77AE3804 EDX=00009EE9 EBX=13A2BE2C ESP=0018FE40 EBP=0018FF1C ESI=0040C70A EDI=0018FE48 EFLAG=00000283
0040B9B3	BSWAP    DX                                               EAX=0000000C ECX=77AE3804 EDX=0000D6ED EBX=13A2BE2C ESP=0018FE40 EBP=0018FF1C ESI=0040C70A EDI=0018FE48 EFLAG=00000286
0040B9B6	ADD      BL, AL                                           EAX=0000000C ECX=77AE3804 EDX=00000000 EBX=13A2BE2C ESP=0018FE40 EBP=0018FF1C ESI=0040C70A EDI=0018FE48 EFLAG=00000286
0040B9B8	AND      EDX, ESP                                         EAX=0000000C ECX=77AE3804 EDX=00000000 EBX=13A2BE38 ESP=0018FE40 EBP=0018FF1C ESI=0040C70A EDI=0018FE48 EFLAG=00000212
0040B9BA	LEA      ESI, [ESI-0x1]                                   EAX=0000000C ECX=77AE3804 EDX=00000000 EBX=13A2BE38 ESP=0018FE40 EBP=0018FF1C ESI=0040C70A EDI=0018FE48 EFLAG=00000246
0040B9BD	SHRD     DX, SP, CL                                       EAX=0000000C ECX=77AE3804 EDX=00000000 EBX=13A2BE38 ESP=0018FE40 EBP=0018FF1C ESI=0040C709 EDI=0018FE48 EFLAG=00000246
0040B9C1	INC      DX                                               EAX=0000000C ECX=77AE3804 EDX=00000000 EBX=13A2BE38 ESP=0018FE40 EBP=0018FF1C ESI=0040C709 EDI=0018FE48 EFLAG=00000246
0040B9C4	SBB      EDX, EDX                                         EAX=0000000C ECX=77AE3804 EDX=00000001 EBX=13A2BE38 ESP=0018FE40 EBP=0018FF1C ESI=0040C709 EDI=0018FE48 EFLAG=00000202
0040B9C6	ADD      DX, 0x9dea                                       EAX=0000000C ECX=77AE3804 EDX=00000000 EBX=13A2BE38 ESP=0018FE40 EBP=0018FF1C ESI=0040C709 EDI=0018FE48 EFLAG=00000246
0040B9CB	MOV      EDX, [EBP+0x0]                                   EAX=0000000C ECX=77AE3804 EDX=00009DEA EBX=13A2BE38 ESP=0018FE40 EBP=0018FF1C ESI=0040C709 EDI=0018FE48 EFLAG=00000282
0040B9CE	PUSHA                                                     EAX=0000000C ECX=77AE3804 EDX=0018FF88 EBX=13A2BE38 ESP=0018FE40 EBP=0018FF1C ESI=0040C709 EDI=0018FE48 EFLAG=00000282
0040B9CF	STC                                                       EAX=0000000C ECX=77AE3804 EDX=0018FF88 EBX=13A2BE38 ESP=0018FE20 EBP=0018FF1C ESI=0040C709 EDI=0018FE48 EFLAG=00000282
0040B9D0	CALL     0x40c120                                         EAX=0000000C ECX=77AE3804 EDX=0018FF88 EBX=13A2BE38 ESP=0018FE20 EBP=0018FF1C ESI=0040C709 EDI=0018FE48 EFLAG=00000283
0040B3B2	ADD      EBP, 0x4                                         EAX=0000000C ECX=77AE3804 EDX=0018FF88 EBX=13A2BE38 ESP=0018FE1C EBP=0018FF1C ESI=0040C709 EDI=0018FE48 EFLAG=00000283
0040B3B5	CALL     0x40c167                                         EAX=0000000C ECX=77AE3804 EDX=0018FF88 EBX=13A2BE38 ESP=0018FE1C EBP=0018FF20 ESI=0040C709 EDI=0018FE48 EFLAG=00000212
0040C167	MOV      [EAX+EDI], EDX                                   EAX=0000000C ECX=77AE3804 EDX=0018FF88 EBX=13A2BE38 ESP=0018FE18 EBP=0018FF20 ESI=0040C709 EDI=0018FE48 EFLAG=00000212
0040C16A	MOV      WORD [ESP+0x4], 0x4a62                           EAX=0000000C ECX=77AE3804 EDX=0018FF88 EBX=13A2BE38 ESP=0018FE18 EBP=0018FF20 ESI=0040C709 EDI=0018FE48 EFLAG=00000212
0040C171	MOV      [ESP], DH                                        EAX=0000000C ECX=77AE3804 EDX=0018FF88 EBX=13A2BE38 ESP=0018FE18 EBP=0018FF20 ESI=0040C709 EDI=0018FE48 EFLAG=00000212
0040C174	PUSHF                                                     EAX=0000000C ECX=77AE3804 EDX=0018FF88 EBX=13A2BE38 ESP=0018FE18 EBP=0018FF20 ESI=0040C709 EDI=0018FE48 EFLAG=00000212
0040C175	PUSHF                                                     EAX=0000000C ECX=77AE3804 EDX=0018FF88 EBX=13A2BE38 ESP=0018FE14 EBP=0018FF20 ESI=0040C709 EDI=0018FE48 EFLAG=00000212
0040C176	LEA      ESP, [ESP+0x38]                                  EAX=0000000C ECX=77AE3804 EDX=0018FF88 EBX=13A2BE38 ESP=0018FE10 EBP=0018FF20 ESI=0040C709 EDI=0018FE48 EFLAG=00000212
0040BEFD	BSWAP    DX                                               EAX=0000000C ECX=77AE3804 EDX=0018FF88 EBX=13A2BE38 ESP=0018FE48 EBP=0018FF20 ESI=0040C709 EDI=0018FE48 EFLAG=00000212
0040BF00	RCL      DL, CL                                           EAX=0000000C ECX=77AE3804 EDX=00180000 EBX=13A2BE38 ESP=0018FE48 EBP=0018FF20 ESI=0040C709 EDI=0018FE48 EFLAG=00000212
0040BF02	PUSHA                                                     EAX=0000000C ECX=77AE3804 EDX=00180000 EBX=13A2BE38 ESP=0018FE48 EBP=0018FF20 ESI=0040C709 EDI=0018FE48 EFLAG=00000212
0040BF03	AND      EDX, 0xfdc85d80                                  EAX=0000000C ECX=77AE3804 EDX=00180000 EBX=13A2BE38 ESP=0018FE28 EBP=0018FF20 ESI=0040C709 EDI=0018FE48 EFLAG=00000212
0040BF09	MOV      AL, [ESI-0x1]                                    EAX=0000000C ECX=77AE3804 EDX=00080000 EBX=13A2BE38 ESP=0018FE28 EBP=0018FF20 ESI=0040C709 EDI=0018FE48 EFLAG=00000206
0040BF0C	DEC      DH                                               EAX=00000030 ECX=77AE3804 EDX=00080000 EBX=13A2BE38 ESP=0018FE28 EBP=0018FF20 ESI=0040C709 EDI=0018FE48 EFLAG=00000206
0040BF0E	SUB      AL, BL                                           EAX=00000030 ECX=77AE3804 EDX=0008FF00 EBX=13A2BE38 ESP=0018FE28 EBP=0018FF20 ESI=0040C709 EDI=0018FE48 EFLAG=00000296
0040BF10	PUSHF                                                     EAX=000000F8 ECX=77AE3804 EDX=0008FF00 EBX=13A2BE38 ESP=0018FE28 EBP=0018FF20 ESI=0040C709 EDI=0018FE48 EFLAG=00000293
0040BF11	BTC      DX, 0x4                                          EAX=000000F8 ECX=77AE3804 EDX=0008FF00 EBX=13A2BE38 ESP=0018FE24 EBP=0018FF20 ESI=0040C709 EDI=0018FE48 EFLAG=00000293
0040BF16	PUSH     ESP                                              EAX=000000F8 ECX=77AE3804 EDX=0008FF10 EBX=13A2BE38 ESP=0018FE24 EBP=0018FF20 ESI=0040C709 EDI=0018FE48 EFLAG=00000292
0040BF17	MOVZX    DX, AL                                           EAX=000000F8 ECX=77AE3804 EDX=0008FF10 EBX=13A2BE38 ESP=0018FE20 EBP=0018FF20 ESI=0040C709 EDI=0018FE48 EFLAG=00000292
0040BF1B	ROR      AL, 0x7                                          EAX=000000F8 ECX=77AE3804 EDX=000800F8 EBX=13A2BE38 ESP=0018FE20 EBP=0018FF20 ESI=0040C709 EDI=0018FE48 EFLAG=00000292
0040BF1E	ROL      DH, 0x3                                          EAX=000000F1 ECX=77AE3804 EDX=000800F8 EBX=13A2BE38 ESP=0018FE20 EBP=0018FF20 ESI=0040C709 EDI=0018FE48 EFLAG=00000293
0040BF21	SUB      AL, 0x30                                         EAX=000000F1 ECX=77AE3804 EDX=000800F8 EBX=13A2BE38 ESP=0018FE20 EBP=0018FF20 ESI=0040C709 EDI=0018FE48 EFLAG=00000292
0040BF23	SHR      DX, 0x9                                          EAX=000000C1 ECX=77AE3804 EDX=000800F8 EBX=13A2BE38 ESP=0018FE20 EBP=0018FF20 ESI=0040C709 EDI=0018FE48 EFLAG=00000282
0040BF27	XOR      AL, 0xce                                         EAX=000000C1 ECX=77AE3804 EDX=00080000 EBX=13A2BE38 ESP=0018FE20 EBP=0018FF20 ESI=0040C709 EDI=0018FE48 EFLAG=00000246
0040BF29	ADC      DL, 0xdb                                         EAX=0000000F ECX=77AE3804 EDX=00080000 EBX=13A2BE38 ESP=0018FE20 EBP=0018FF20 ESI=0040C709 EDI=0018FE48 EFLAG=00000206
0040BF2C	BT       EBX, EDI                                         EAX=0000000F ECX=77AE3804 EDX=000800DB EBX=13A2BE38 ESP=0018FE20 EBP=0018FF20 ESI=0040C709 EDI=0018FE48 EFLAG=00000286
0040BF2F	SETL     DH                                               EAX=0000000F ECX=77AE3804 EDX=000800DB EBX=13A2BE38 ESP=0018FE20 EBP=0018FF20 ESI=0040C709 EDI=0018FE48 EFLAG=00000286
0040BF32	SUB      BL, AL                                           EAX=0000000F ECX=77AE3804 EDX=000801DB EBX=13A2BE38 ESP=0018FE20 EBP=0018FF20 ESI=0040C709 EDI=0018FE48 EFLAG=00000286
0040BF34	STC                                                       EAX=0000000F ECX=77AE3804 EDX=000801DB EBX=13A2BE29 ESP=0018FE20 EBP=0018FF20 ESI=0040C709 EDI=0018FE48 EFLAG=00000212
0040BF35	MOVZX    EAX, AL                                          EAX=0000000F ECX=77AE3804 EDX=000801DB EBX=13A2BE29 ESP=0018FE20 EBP=0018FF20 ESI=0040C709 EDI=0018FE48 EFLAG=00000213
0040BF38	NOT      EDX                                              EAX=0000000F ECX=77AE3804 EDX=000801DB EBX=13A2BE29 ESP=0018FE20 EBP=0018FF20 ESI=0040C709 EDI=0018FE48 EFLAG=00000213
0040BF3A	BSF      EDX, EDI                                         EAX=0000000F ECX=77AE3804 EDX=FFF7FE24 EBX=13A2BE29 ESP=0018FE20 EBP=0018FF20 ESI=0040C709 EDI=0018FE48 EFLAG=00000213
0040BF3E	CMC                                                       EAX=0000000F ECX=77AE3804 EDX=FFF70003 EBX=13A2BE29 ESP=0018FE20 EBP=0018FF20 ESI=0040C709 EDI=0018FE48 EFLAG=00000206
0040BF3F	SAL      DH, CL                                           EAX=0000000F ECX=77AE3804 EDX=FFF70003 EBX=13A2BE29 ESP=0018FE20 EBP=0018FF20 ESI=0040C709 EDI=0018FE48 EFLAG=00000207
0040BF41	MOV      EDX, [EAX*4+0x40a51f]                            EAX=0000000F ECX=77AE3804 EDX=FFF70003 EBX=13A2BE29 ESP=0018FE20 EBP=0018FF20 ESI=0040C709 EDI=0018FE48 EFLAG=00000246
0040BF48	TEST     EDX, 0xe75c2a09                                  EAX=0000000F ECX=77AE3804 EDX=2BFA6887 EBX=13A2BE29 ESP=0018FE20 EBP=0018FF20 ESI=0040C709 EDI=0018FE48 EFLAG=00000246
0040BF4E	TEST     BL, DL                                           EAX=0000000F ECX=77AE3804 EDX=2BFA6887 EBX=13A2BE29 ESP=0018FE20 EBP=0018FF20 ESI=0040C709 EDI=0018FE48 EFLAG=00000202
0040BF50	SUB      EDX, 0x2bb9b71b                                  EAX=0000000F ECX=77AE3804 EDX=2BFA6887 EBX=13A2BE29 ESP=0018FE20 EBP=0018FF20 ESI=0040C709 EDI=0018FE48 EFLAG=00000202
0040BF56	CALL     0x40bd78                                         EAX=0000000F ECX=77AE3804 EDX=0040B16C EBX=13A2BE29 ESP=0018FE20 EBP=0018FF20 ESI=0040C709 EDI=0018FE48 EFLAG=00000216
0040BD78	PUSH     EDX                                              EAX=0000000F ECX=77AE3804 EDX=0040B16C EBX=13A2BE29 ESP=0018FE1C EBP=0018FF20 ESI=0040C709 EDI=0018FE48 EFLAG=00000216
0040BD79	DEC      ESI                                              EAX=0000000F ECX=77AE3804 EDX=0040B16C EBX=13A2BE29 ESP=0018FE18 EBP=0018FF20 ESI=0040C709 EDI=0018FE48 EFLAG=00000216
0040BD7A	PUSHF                                                     EAX=0000000F ECX=77AE3804 EDX=0040B16C EBX=13A2BE29 ESP=0018FE18 EBP=0018FF20 ESI=0040C708 EDI=0018FE48 EFLAG=00000202
0040A91F	MOV      [ESP], DH                                        EAX=0000000F ECX=77AE3804 EDX=0040B16C EBX=13A2BE29 ESP=0018FE14 EBP=0018FF20 ESI=0040C708 EDI=0018FE48 EFLAG=00000202
0040A922	MOV      [ESP+0x30], EDX                                  EAX=0000000F ECX=77AE3804 EDX=0040B16C EBX=13A2BE29 ESP=0018FE14 EBP=0018FF20 ESI=0040C708 EDI=0018FE48 EFLAG=00000202
0040A926	MOV      [ESP], AL                                        EAX=0000000F ECX=77AE3804 EDX=0040B16C EBX=13A2BE29 ESP=0018FE14 EBP=0018FF20 ESI=0040C708 EDI=0018FE48 EFLAG=00000202
0040A929	PUSH     DWORD [ESP+0x30]                                 EAX=0000000F ECX=77AE3804 EDX=0040B16C EBX=13A2BE29 ESP=0018FE14 EBP=0018FF20 ESI=0040C708 EDI=0018FE48 EFLAG=00000202
0040A92D	RET      0x34                                             EAX=0000000F ECX=77AE3804 EDX=0040B16C EBX=13A2BE29 ESP=0018FE10 EBP=0018FF20 ESI=0040C708 EDI=0018FE48 EFLAG=00000202
0040B16C	CALL     0x40bb09                                         EAX=0000000F ECX=77AE3804 EDX=0040B16C EBX=13A2BE29 ESP=0018FE48 EBP=0018FF20 ESI=0040C708 EDI=0018FE48 EFLAG=00000202
0040BB09	SUB      DL, AH                                           EAX=0000000F ECX=77AE3804 EDX=0040B16C EBX=13A2BE29 ESP=0018FE44 EBP=0018FF20 ESI=0040C708 EDI=0018FE48 EFLAG=00000202
0040BB0B	MOV      AL, [ESI-0x1]                                    EAX=0000000F ECX=77AE3804 EDX=0040B16C EBX=13A2BE29 ESP=0018FE44 EBP=0018FF20 ESI=0040C708 EDI=0018FE48 EFLAG=00000206
0040BB0E	LEA      ESP, [ESP+0x4]                                   EAX=000000D0 ECX=77AE3804 EDX=0040B16C EBX=13A2BE29 ESP=0018FE44 EBP=0018FF20 ESI=0040C708 EDI=0018FE48 EFLAG=00000206
0040BB12	JNP      0x40bd9a                                         EAX=000000D0 ECX=77AE3804 EDX=0040B16C EBX=13A2BE29 ESP=0018FE48 EBP=0018FF20 ESI=0040C708 EDI=0018FE48 EFLAG=00000206
0040BB18	BSR      EDX, ECX                                         EAX=000000D0 ECX=77AE3804 EDX=0040B16C EBX=13A2BE29 ESP=0018FE48 EBP=0018FF20 ESI=0040C708 EDI=0018FE48 EFLAG=00000206
0040BB1B	ADD      AL, BL                                           EAX=000000D0 ECX=77AE3804 EDX=0000001E EBX=13A2BE29 ESP=0018FE48 EBP=0018FF20 ESI=0040C708 EDI=0018FE48 EFLAG=00000206
0040BB1D	PUSH     EDX                                              EAX=000000F9 ECX=77AE3804 EDX=0000001E EBX=13A2BE29 ESP=0018FE48 EBP=0018FF20 ESI=0040C708 EDI=0018FE48 EFLAG=00000286
0040BB1E	DEC      AL                                               EAX=000000F9 ECX=77AE3804 EDX=0000001E EBX=13A2BE29 ESP=0018FE44 EBP=0018FF20 ESI=0040C708 EDI=0018FE48 EFLAG=00000286
0040BB20	DEC      DH                                               EAX=000000F8 ECX=77AE3804 EDX=0000001E EBX=13A2BE29 ESP=0018FE44 EBP=0018FF20 ESI=0040C708 EDI=0018FE48 EFLAG=00000282
0040BB22	NEG      AL                                               EAX=000000F8 ECX=77AE3804 EDX=0000FF1E EBX=13A2BE29 ESP=0018FE44 EBP=0018FF20 ESI=0040C708 EDI=0018FE48 EFLAG=00000296
0040BB24	CALL     0x40b99f                                         EAX=00000008 ECX=77AE3804 EDX=0000FF1E EBX=13A2BE29 ESP=0018FE44 EBP=0018FF20 ESI=0040C708 EDI=0018FE48 EFLAG=00000213
0040B99F	BTC      EDX, 0xe                                         EAX=00000008 ECX=77AE3804 EDX=0000FF1E EBX=13A2BE29 ESP=0018FE40 EBP=0018FF20 ESI=0040C708 EDI=0018FE48 EFLAG=00000213
0040B9A3	MOVZX    EDX, DL                                          EAX=00000008 ECX=77AE3804 EDX=0000BF1E EBX=13A2BE29 ESP=0018FE40 EBP=0018FF20 ESI=0040C708 EDI=0018FE48 EFLAG=00000213
0040B9A6	CMC                                                       EAX=00000008 ECX=77AE3804 EDX=0000001E EBX=13A2BE29 ESP=0018FE40 EBP=0018FF20 ESI=0040C708 EDI=0018FE48 EFLAG=00000213
0040B9A7	ROR      AL, 0x1                                          EAX=00000008 ECX=77AE3804 EDX=0000001E EBX=13A2BE29 ESP=0018FE40 EBP=0018FF20 ESI=0040C708 EDI=0018FE48 EFLAG=00000212
0040B9A9	SBB      DX, 0x612a                                       EAX=00000004 ECX=77AE3804 EDX=0000001E EBX=13A2BE29 ESP=0018FE40 EBP=0018FF20 ESI=0040C708 EDI=0018FE48 EFLAG=00000212
0040B9AE	ADC      DL, DL                                           EAX=00000004 ECX=77AE3804 EDX=00009EF4 EBX=13A2BE29 ESP=0018FE40 EBP=0018FF20 ESI=0040C708 EDI=0018FE48 EFLAG=00000283
0040B9B0	ADD      DX, CX                                           EAX=00000004 ECX=77AE3804 EDX=00009EE9 EBX=13A2BE29 ESP=0018FE40 EBP=0018FF20 ESI=0040C708 EDI=0018FE48 EFLAG=00000283
0040B9B3	BSWAP    DX                                               EAX=00000004 ECX=77AE3804 EDX=0000D6ED EBX=13A2BE29 ESP=0018FE40 EBP=0018FF20 ESI=0040C708 EDI=0018FE48 EFLAG=00000286
0040B9B6	ADD      BL, AL                                           EAX=00000004 ECX=77AE3804 EDX=00000000 EBX=13A2BE29 ESP=0018FE40 EBP=0018FF20 ESI=0040C708 EDI=0018FE48 EFLAG=00000286
0040B9B8	AND      EDX, ESP                                         EAX=00000004 ECX=77AE3804 EDX=00000000 EBX=13A2BE2D ESP=0018FE40 EBP=0018FF20 ESI=0040C708 EDI=0018FE48 EFLAG=00000206
0040B9BA	LEA      ESI, [ESI-0x1]                                   EAX=00000004 ECX=77AE3804 EDX=00000000 EBX=13A2BE2D ESP=0018FE40 EBP=0018FF20 ESI=0040C708 EDI=0018FE48 EFLAG=00000246
0040B9BD	SHRD     DX, SP, CL                                       EAX=00000004 ECX=77AE3804 EDX=00000000 EBX=13A2BE2D ESP=0018FE40 EBP=0018FF20 ESI=0040C707 EDI=0018FE48 EFLAG=00000246
0040B9C1	INC      DX                                               EAX=00000004 ECX=77AE3804 EDX=00000000 EBX=13A2BE2D ESP=0018FE40 EBP=0018FF20 ESI=0040C707 EDI=0018FE48 EFLAG=00000246
0040B9C4	SBB      EDX, EDX                                         EAX=00000004 ECX=77AE3804 EDX=00000001 EBX=13A2BE2D ESP=0018FE40 EBP=0018FF20 ESI=0040C707 EDI=0018FE48 EFLAG=00000202
0040B9C6	ADD      DX, 0x9dea                                       EAX=00000004 ECX=77AE3804 EDX=00000000 EBX=13A2BE2D ESP=0018FE40 EBP=0018FF20 ESI=0040C707 EDI=0018FE48 EFLAG=00000246
0040B9CB	MOV      EDX, [EBP+0x0]                                   EAX=00000004 ECX=77AE3804 EDX=00009DEA EBX=13A2BE2D ESP=0018FE40 EBP=0018FF20 ESI=0040C707 EDI=0018FE48 EFLAG=00000282
0040B9CE	PUSHA                                                     EAX=00000004 ECX=77AE3804 EDX=75C5FD1E EBX=13A2BE2D ESP=0018FE40 EBP=0018FF20 ESI=0040C707 EDI=0018FE48 EFLAG=00000282
0040B9CF	STC                                                       EAX=00000004 ECX=77AE3804 EDX=75C5FD1E EBX=13A2BE2D ESP=0018FE20 EBP=0018FF20 ESI=0040C707 EDI=0018FE48 EFLAG=00000282
0040B9D0	CALL     0x40c120                                         EAX=00000004 ECX=77AE3804 EDX=75C5FD1E EBX=13A2BE2D ESP=0018FE20 EBP=0018FF20 ESI=0040C707 EDI=0018FE48 EFLAG=00000283
0040B3B2	ADD      EBP, 0x4                                         EAX=00000004 ECX=77AE3804 EDX=75C5FD1E EBX=13A2BE2D ESP=0018FE1C EBP=0018FF20 ESI=0040C707 EDI=0018FE48 EFLAG=00000283
0040B3B5	CALL     0x40c167                                         EAX=00000004 ECX=77AE3804 EDX=75C5FD1E EBX=13A2BE2D ESP=0018FE1C EBP=0018FF24 ESI=0040C707 EDI=0018FE48 EFLAG=00000206
0040C167	MOV      [EAX+EDI], EDX                                   EAX=00000004 ECX=77AE3804 EDX=75C5FD1E EBX=13A2BE2D ESP=0018FE18 EBP=0018FF24 ESI=0040C707 EDI=0018FE48 EFLAG=00000206
0040C16A	MOV      WORD [ESP+0x4], 0x4a62                           EAX=00000004 ECX=77AE3804 EDX=75C5FD1E EBX=13A2BE2D ESP=0018FE18 EBP=0018FF24 ESI=0040C707 EDI=0018FE48 EFLAG=00000206
0040C171	MOV      [ESP], DH                                        EAX=00000004 ECX=77AE3804 EDX=75C5FD1E EBX=13A2BE2D ESP=0018FE18 EBP=0018FF24 ESI=0040C707 EDI=0018FE48 EFLAG=00000206
0040C174	PUSHF                                                     EAX=00000004 ECX=77AE3804 EDX=75C5FD1E EBX=13A2BE2D ESP=0018FE18 EBP=0018FF24 ESI=0040C707 EDI=0018FE48 EFLAG=00000206
0040C175	PUSHF                                                     EAX=00000004 ECX=77AE3804 EDX=75C5FD1E EBX=13A2BE2D ESP=0018FE14 EBP=0018FF24 ESI=0040C707 EDI=0018FE48 EFLAG=00000206
0040C176	LEA      ESP, [ESP+0x38]                                  EAX=00000004 ECX=77AE3804 EDX=75C5FD1E EBX=13A2BE2D ESP=0018FE10 EBP=0018FF24 ESI=0040C707 EDI=0018FE48 EFLAG=00000206
0040BEFD	BSWAP    DX                                               EAX=00000004 ECX=77AE3804 EDX=75C5FD1E EBX=13A2BE2D ESP=0018FE48 EBP=0018FF24 ESI=0040C707 EDI=0018FE48 EFLAG=00000206
0040BF00	RCL      DL, CL                                           EAX=00000004 ECX=77AE3804 EDX=75C50000 EBX=13A2BE2D ESP=0018FE48 EBP=0018FF24 ESI=0040C707 EDI=0018FE48 EFLAG=00000206
0040BF02	PUSHA                                                     EAX=00000004 ECX=77AE3804 EDX=75C50000 EBX=13A2BE2D ESP=0018FE48 EBP=0018FF24 ESI=0040C707 EDI=0018FE48 EFLAG=00000206
0040BF03	AND      EDX, 0xfdc85d80                                  EAX=00000004 ECX=77AE3804 EDX=75C50000 EBX=13A2BE2D ESP=0018FE28 EBP=0018FF24 ESI=0040C707 EDI=0018FE48 EFLAG=00000206
0040BF09	MOV      AL, [ESI-0x1]                                    EAX=00000004 ECX=77AE3804 EDX=75C00000 EBX=13A2BE2D ESP=0018FE28 EBP=0018FF24 ESI=0040C707 EDI=0018FE48 EFLAG=00000206
0040BF0C	DEC      DH                                               EAX=00000079 ECX=77AE3804 EDX=75C00000 EBX=13A2BE2D ESP=0018FE28 EBP=0018FF24 ESI=0040C707 EDI=0018FE48 EFLAG=00000206
0040BF0E	SUB      AL, BL                                           EAX=00000079 ECX=77AE3804 EDX=75C0FF00 EBX=13A2BE2D ESP=0018FE28 EBP=0018FF24 ESI=0040C707 EDI=0018FE48 EFLAG=00000296
0040BF10	PUSHF                                                     EAX=0000004C ECX=77AE3804 EDX=75C0FF00 EBX=13A2BE2D ESP=0018FE28 EBP=0018FF24 ESI=0040C707 EDI=0018FE48 EFLAG=00000212
0040BF11	BTC      DX, 0x4                                          EAX=0000004C ECX=77AE3804 EDX=75C0FF00 EBX=13A2BE2D ESP=0018FE24 EBP=0018FF24 ESI=0040C707 EDI=0018FE48 EFLAG=00000212
0040BF16	PUSH     ESP                                              EAX=0000004C ECX=77AE3804 EDX=75C0FF10 EBX=13A2BE2D ESP=0018FE24 EBP=0018FF24 ESI=0040C707 EDI=0018FE48 EFLAG=00000212
0040BF17	MOVZX    DX, AL                                           EAX=0000004C ECX=77AE3804 EDX=75C0FF10 EBX=13A2BE2D ESP=0018FE20 EBP=0018FF24 ESI=0040C707 EDI=0018FE48 EFLAG=00000212
0040BF1B	ROR      AL, 0x7                                          EAX=0000004C ECX=77AE3804 EDX=75C0004C EBX=13A2BE2D ESP=0018FE20 EBP=0018FF24 ESI=0040C707 EDI=0018FE48 EFLAG=00000212
0040BF1E	ROL      DH, 0x3                                          EAX=00000098 ECX=77AE3804 EDX=75C0004C EBX=13A2BE2D ESP=0018FE20 EBP=0018FF24 ESI=0040C707 EDI=0018FE48 EFLAG=00000A13
0040BF21	SUB      AL, 0x30                                         EAX=00000098 ECX=77AE3804 EDX=75C0004C EBX=13A2BE2D ESP=0018FE20 EBP=0018FF24 ESI=0040C707 EDI=0018FE48 EFLAG=00000212
0040BF23	SHR      DX, 0x9                                          EAX=00000068 ECX=77AE3804 EDX=75C0004C EBX=13A2BE2D ESP=0018FE20 EBP=0018FF24 ESI=0040C707 EDI=0018FE48 EFLAG=00000A02
0040BF27	XOR      AL, 0xce                                         EAX=00000068 ECX=77AE3804 EDX=75C00000 EBX=13A2BE2D ESP=0018FE20 EBP=0018FF24 ESI=0040C707 EDI=0018FE48 EFLAG=00000246
0040BF29	ADC      DL, 0xdb                                         EAX=000000A6 ECX=77AE3804 EDX=75C00000 EBX=13A2BE2D ESP=0018FE20 EBP=0018FF24 ESI=0040C707 EDI=0018FE48 EFLAG=00000286
0040BF2C	BT       EBX, EDI                                         EAX=000000A6 ECX=77AE3804 EDX=75C000DB EBX=13A2BE2D ESP=0018FE20 EBP=0018FF24 ESI=0040C707 EDI=0018FE48 EFLAG=00000286
0040BF2F	SETL     DH                                               EAX=000000A6 ECX=77AE3804 EDX=75C000DB EBX=13A2BE2D ESP=0018FE20 EBP=0018FF24 ESI=0040C707 EDI=0018FE48 EFLAG=00000286
0040BF32	SUB      BL, AL                                           EAX=000000A6 ECX=77AE3804 EDX=75C001DB EBX=13A2BE2D ESP=0018FE20 EBP=0018FF24 ESI=0040C707 EDI=0018FE48 EFLAG=00000286
0040BF34	STC                                                       EAX=000000A6 ECX=77AE3804 EDX=75C001DB EBX=13A2BE87 ESP=0018FE20 EBP=0018FF24 ESI=0040C707 EDI=0018FE48 EFLAG=00000A87
0040BF35	MOVZX    EAX, AL                                          EAX=000000A6 ECX=77AE3804 EDX=75C001DB EBX=13A2BE87 ESP=0018FE20 EBP=0018FF24 ESI=0040C707 EDI=0018FE48 EFLAG=00000A87
0040BF38	NOT      EDX                                              EAX=000000A6 ECX=77AE3804 EDX=75C001DB EBX=13A2BE87 ESP=0018FE20 EBP=0018FF24 ESI=0040C707 EDI=0018FE48 EFLAG=00000A87
0040BF3A	BSF      EDX, EDI                                         EAX=000000A6 ECX=77AE3804 EDX=8A3FFE24 EBX=13A2BE87 ESP=0018FE20 EBP=0018FF24 ESI=0040C707 EDI=0018FE48 EFLAG=00000A87
0040BF3E	CMC                                                       EAX=000000A6 ECX=77AE3804 EDX=8A3F0003 EBX=13A2BE87 ESP=0018FE20 EBP=0018FF24 ESI=0040C707 EDI=0018FE48 EFLAG=00000206
0040BF3F	SAL      DH, CL                                           EAX=000000A6 ECX=77AE3804 EDX=8A3F0003 EBX=13A2BE87 ESP=0018FE20 EBP=0018FF24 ESI=0040C707 EDI=0018FE48 EFLAG=00000207
0040BF41	MOV      EDX, [EAX*4+0x40a51f]                            EAX=000000A6 ECX=77AE3804 EDX=8A3F0003 EBX=13A2BE87 ESP=0018FE20 EBP=0018FF24 ESI=0040C707 EDI=0018FE48 EFLAG=00000246
0040BF48	TEST     EDX, 0xe75c2a09                                  EAX=000000A6 ECX=77AE3804 EDX=2BFA6887 EBX=13A2BE87 ESP=0018FE20 EBP=0018FF24 ESI=0040C707 EDI=0018FE48 EFLAG=00000246
0040BF4E	TEST     BL, DL                                           EAX=000000A6 ECX=77AE3804 EDX=2BFA6887 EBX=13A2BE87 ESP=0018FE20 EBP=0018FF24 ESI=0040C707 EDI=0018FE48 EFLAG=00000202
0040BF50	SUB      EDX, 0x2bb9b71b                                  EAX=000000A6 ECX=77AE3804 EDX=2BFA6887 EBX=13A2BE87 ESP=0018FE20 EBP=0018FF24 ESI=0040C707 EDI=0018FE48 EFLAG=00000286
0040BF56	CALL     0x40bd78                                         EAX=000000A6 ECX=77AE3804 EDX=0040B16C EBX=13A2BE87 ESP=0018FE20 EBP=0018FF24 ESI=0040C707 EDI=0018FE48 EFLAG=00000216
0040BD78	PUSH     EDX                                              EAX=000000A6 ECX=77AE3804 EDX=0040B16C EBX=13A2BE87 ESP=0018FE1C EBP=0018FF24 ESI=0040C707 EDI=0018FE48 EFLAG=00000216
0040BD79	DEC      ESI                                              EAX=000000A6 ECX=77AE3804 EDX=0040B16C EBX=13A2BE87 ESP=0018FE18 EBP=0018FF24 ESI=0040C707 EDI=0018FE48 EFLAG=00000216
0040BD7A	PUSHF                                                     EAX=000000A6 ECX=77AE3804 EDX=0040B16C EBX=13A2BE87 ESP=0018FE18 EBP=0018FF24 ESI=0040C706 EDI=0018FE48 EFLAG=00000206
0040A91F	MOV      [ESP], DH                                        EAX=000000A6 ECX=77AE3804 EDX=0040B16C EBX=13A2BE87 ESP=0018FE14 EBP=0018FF24 ESI=0040C706 EDI=0018FE48 EFLAG=00000206
0040A922	MOV      [ESP+0x30], EDX                                  EAX=000000A6 ECX=77AE3804 EDX=0040B16C EBX=13A2BE87 ESP=0018FE14 EBP=0018FF24 ESI=0040C706 EDI=0018FE48 EFLAG=00000206
0040A926	MOV      [ESP], AL                                        EAX=000000A6 ECX=77AE3804 EDX=0040B16C EBX=13A2BE87 ESP=0018FE14 EBP=0018FF24 ESI=0040C706 EDI=0018FE48 EFLAG=00000206
0040A929	PUSH     DWORD [ESP+0x30]                                 EAX=000000A6 ECX=77AE3804 EDX=0040B16C EBX=13A2BE87 ESP=0018FE14 EBP=0018FF24 ESI=0040C706 EDI=0018FE48 EFLAG=00000206
0040A92D	RET      0x34                                             EAX=000000A6 ECX=77AE3804 EDX=0040B16C EBX=13A2BE87 ESP=0018FE10 EBP=0018FF24 ESI=0040C706 EDI=0018FE48 EFLAG=00000206
0040B16C	CALL     0x40bb09                                         EAX=000000A6 ECX=77AE3804 EDX=0040B16C EBX=13A2BE87 ESP=0018FE48 EBP=0018FF24 ESI=0040C706 EDI=0018FE48 EFLAG=00000206
0040BB09	SUB      DL, AH                                           EAX=000000A6 ECX=77AE3804 EDX=0040B16C EBX=13A2BE87 ESP=0018FE44 EBP=0018FF24 ESI=0040C706 EDI=0018FE48 EFLAG=00000206
0040BB0B	MOV      AL, [ESI-0x1]                                    EAX=000000A6 ECX=77AE3804 EDX=0040B16C EBX=13A2BE87 ESP=0018FE44 EBP=0018FF24 ESI=0040C706 EDI=0018FE48 EFLAG=00000206
0040BB0E	LEA      ESP, [ESP+0x4]                                   EAX=0000000A ECX=77AE3804 EDX=0040B16C EBX=13A2BE87 ESP=0018FE44 EBP=0018FF24 ESI=0040C706 EDI=0018FE48 EFLAG=00000206
0040BB12	JNP      0x40bd9a                                         EAX=0000000A ECX=77AE3804 EDX=0040B16C EBX=13A2BE87 ESP=0018FE48 EBP=0018FF24 ESI=0040C706 EDI=0018FE48 EFLAG=00000206
0040BB18	BSR      EDX, ECX                                         EAX=0000000A ECX=77AE3804 EDX=0040B16C EBX=13A2BE87 ESP=0018FE48 EBP=0018FF24 ESI=0040C706 EDI=0018FE48 EFLAG=00000206
0040BB1B	ADD      AL, BL                                           EAX=0000000A ECX=77AE3804 EDX=0000001E EBX=13A2BE87 ESP=0018FE48 EBP=0018FF24 ESI=0040C706 EDI=0018FE48 EFLAG=00000206
0040BB1D	PUSH     EDX                                              EAX=00000091 ECX=77AE3804 EDX=0000001E EBX=13A2BE87 ESP=0018FE48 EBP=0018FF24 ESI=0040C706 EDI=0018FE48 EFLAG=00000292
0040BB1E	DEC      AL                                               EAX=00000091 ECX=77AE3804 EDX=0000001E EBX=13A2BE87 ESP=0018FE44 EBP=0018FF24 ESI=0040C706 EDI=0018FE48 EFLAG=00000292
0040BB20	DEC      DH                                               EAX=00000090 ECX=77AE3804 EDX=0000001E EBX=13A2BE87 ESP=0018FE44 EBP=0018FF24 ESI=0040C706 EDI=0018FE48 EFLAG=00000286
0040BB22	NEG      AL                                               EAX=00000090 ECX=77AE3804 EDX=0000FF1E EBX=13A2BE87 ESP=0018FE44 EBP=0018FF24 ESI=0040C706 EDI=0018FE48 EFLAG=00000296
0040BB24	CALL     0x40b99f                                         EAX=00000070 ECX=77AE3804 EDX=0000FF1E EBX=13A2BE87 ESP=0018FE44 EBP=0018FF24 ESI=0040C706 EDI=0018FE48 EFLAG=00000203
0040B99F	BTC      EDX, 0xe                                         EAX=00000070 ECX=77AE3804 EDX=0000FF1E EBX=13A2BE87 ESP=0018FE40 EBP=0018FF24 ESI=0040C706 EDI=0018FE48 EFLAG=00000203
0040B9A3	MOVZX    EDX, DL                                          EAX=00000070 ECX=77AE3804 EDX=0000BF1E EBX=13A2BE87 ESP=0018FE40 EBP=0018FF24 ESI=0040C706 EDI=0018FE48 EFLAG=00000203
0040B9A6	CMC                                                       EAX=00000070 ECX=77AE3804 EDX=0000001E EBX=13A2BE87 ESP=0018FE40 EBP=0018FF24 ESI=0040C706 EDI=0018FE48 EFLAG=00000203
0040B9A7	ROR      AL, 0x1                                          EAX=00000070 ECX=77AE3804 EDX=0000001E EBX=13A2BE87 ESP=0018FE40 EBP=0018FF24 ESI=0040C706 EDI=0018FE48 EFLAG=00000202
0040B9A9	SBB      DX, 0x612a                                       EAX=00000038 ECX=77AE3804 EDX=0000001E EBX=13A2BE87 ESP=0018FE40 EBP=0018FF24 ESI=0040C706 EDI=0018FE48 EFLAG=00000202
0040B9AE	ADC      DL, DL                                           EAX=00000038 ECX=77AE3804 EDX=00009EF4 EBX=13A2BE87 ESP=0018FE40 EBP=0018FF24 ESI=0040C706 EDI=0018FE48 EFLAG=00000283
0040B9B0	ADD      DX, CX                                           EAX=00000038 ECX=77AE3804 EDX=00009EE9 EBX=13A2BE87 ESP=0018FE40 EBP=0018FF24 ESI=0040C706 EDI=0018FE48 EFLAG=00000283
0040B9B3	BSWAP    DX                                               EAX=00000038 ECX=77AE3804 EDX=0000D6ED EBX=13A2BE87 ESP=0018FE40 EBP=0018FF24 ESI=0040C706 EDI=0018FE48 EFLAG=00000286
0040B9B6	ADD      BL, AL                                           EAX=00000038 ECX=77AE3804 EDX=00000000 EBX=13A2BE87 ESP=0018FE40 EBP=0018FF24 ESI=0040C706 EDI=0018FE48 EFLAG=00000286
0040B9B8	AND      EDX, ESP                                         EAX=00000038 ECX=77AE3804 EDX=00000000 EBX=13A2BEBF ESP=0018FE40 EBP=0018FF24 ESI=0040C706 EDI=0018FE48 EFLAG=00000282
0040B9BA	LEA      ESI, [ESI-0x1]                                   EAX=00000038 ECX=77AE3804 EDX=00000000 EBX=13A2BEBF ESP=0018FE40 EBP=0018FF24 ESI=0040C706 EDI=0018FE48 EFLAG=00000246
0040B9BD	SHRD     DX, SP, CL                                       EAX=00000038 ECX=77AE3804 EDX=00000000 EBX=13A2BEBF ESP=0018FE40 EBP=0018FF24 ESI=0040C705 EDI=0018FE48 EFLAG=00000246
0040B9C1	INC      DX                                               EAX=00000038 ECX=77AE3804 EDX=00000000 EBX=13A2BEBF ESP=0018FE40 EBP=0018FF24 ESI=0040C705 EDI=0018FE48 EFLAG=00000246
0040B9C4	SBB      EDX, EDX                                         EAX=00000038 ECX=77AE3804 EDX=00000001 EBX=13A2BEBF ESP=0018FE40 EBP=0018FF24 ESI=0040C705 EDI=0018FE48 EFLAG=00000202
0040B9C6	ADD      DX, 0x9dea                                       EAX=00000038 ECX=77AE3804 EDX=00000000 EBX=13A2BEBF ESP=0018FE40 EBP=0018FF24 ESI=0040C705 EDI=0018FE48 EFLAG=00000246
0040B9CB	MOV      EDX, [EBP+0x0]                                   EAX=00000038 ECX=77AE3804 EDX=00009DEA EBX=13A2BEBF ESP=0018FE40 EBP=0018FF24 ESI=0040C705 EDI=0018FE48 EFLAG=00000282
0040B9CE	PUSHA                                                     EAX=00000038 ECX=77AE3804 EDX=00000006 EBX=13A2BEBF ESP=0018FE40 EBP=0018FF24 ESI=0040C705 EDI=0018FE48 EFLAG=00000282
0040B9CF	STC                                                       EAX=00000038 ECX=77AE3804 EDX=00000006 EBX=13A2BEBF ESP=0018FE20 EBP=0018FF24 ESI=0040C705 EDI=0018FE48 EFLAG=00000282
0040B9D0	CALL     0x40c120                                         EAX=00000038 ECX=77AE3804 EDX=00000006 EBX=13A2BEBF ESP=0018FE20 EBP=0018FF24 ESI=0040C705 EDI=0018FE48 EFLAG=00000283
0040B3B2	ADD      EBP, 0x4                                         EAX=00000038 ECX=77AE3804 EDX=00000006 EBX=13A2BEBF ESP=0018FE1C EBP=0018FF24 ESI=0040C705 EDI=0018FE48 EFLAG=00000283
0040B3B5	CALL     0x40c167                                         EAX=00000038 ECX=77AE3804 EDX=00000006 EBX=13A2BEBF ESP=0018FE1C EBP=0018FF28 ESI=0040C705 EDI=0018FE48 EFLAG=00000206
0040C167	MOV      [EAX+EDI], EDX                                   EAX=00000038 ECX=77AE3804 EDX=00000006 EBX=13A2BEBF ESP=0018FE18 EBP=0018FF28 ESI=0040C705 EDI=0018FE48 EFLAG=00000206
0040C16A	MOV      WORD [ESP+0x4], 0x4a62                           EAX=00000038 ECX=77AE3804 EDX=00000006 EBX=13A2BEBF ESP=0018FE18 EBP=0018FF28 ESI=0040C705 EDI=0018FE48 EFLAG=00000206
0040C171	MOV      [ESP], DH                                        EAX=00000038 ECX=77AE3804 EDX=00000006 EBX=13A2BEBF ESP=0018FE18 EBP=0018FF28 ESI=0040C705 EDI=0018FE48 EFLAG=00000206
0040C174	PUSHF                                                     EAX=00000038 ECX=77AE3804 EDX=00000006 EBX=13A2BEBF ESP=0018FE18 EBP=0018FF28 ESI=0040C705 EDI=0018FE48 EFLAG=00000206
0040C175	PUSHF                                                     EAX=00000038 ECX=77AE3804 EDX=00000006 EBX=13A2BEBF ESP=0018FE14 EBP=0018FF28 ESI=0040C705 EDI=0018FE48 EFLAG=00000206
0040C176	LEA      ESP, [ESP+0x38]                                  EAX=00000038 ECX=77AE3804 EDX=00000006 EBX=13A2BEBF ESP=0018FE10 EBP=0018FF28 ESI=0040C705 EDI=0018FE48 EFLAG=00000206
0040BEFD	BSWAP    DX                                               EAX=00000038 ECX=77AE3804 EDX=00000006 EBX=13A2BEBF ESP=0018FE48 EBP=0018FF28 ESI=0040C705 EDI=0018FE48 EFLAG=00000206
0040BF00	RCL      DL, CL                                           EAX=00000038 ECX=77AE3804 EDX=00000000 EBX=13A2BEBF ESP=0018FE48 EBP=0018FF28 ESI=0040C705 EDI=0018FE48 EFLAG=00000206
0040BF02	PUSHA                                                     EAX=00000038 ECX=77AE3804 EDX=00000000 EBX=13A2BEBF ESP=0018FE48 EBP=0018FF28 ESI=0040C705 EDI=0018FE48 EFLAG=00000206
0040BF03	AND      EDX, 0xfdc85d80                                  EAX=00000038 ECX=77AE3804 EDX=00000000 EBX=13A2BEBF ESP=0018FE28 EBP=0018FF28 ESI=0040C705 EDI=0018FE48 EFLAG=00000206
0040BF09	MOV      AL, [ESI-0x1]                                    EAX=00000038 ECX=77AE3804 EDX=00000000 EBX=13A2BEBF ESP=0018FE28 EBP=0018FF28 ESI=0040C705 EDI=0018FE48 EFLAG=00000246
0040BF0C	DEC      DH                                               EAX=000000B7 ECX=77AE3804 EDX=00000000 EBX=13A2BEBF ESP=0018FE28 EBP=0018FF28 ESI=0040C705 EDI=0018FE48 EFLAG=00000246
0040BF0E	SUB      AL, BL                                           EAX=000000B7 ECX=77AE3804 EDX=0000FF00 EBX=13A2BEBF ESP=0018FE28 EBP=0018FF28 ESI=0040C705 EDI=0018FE48 EFLAG=00000296
0040BF10	PUSHF                                                     EAX=000000F8 ECX=77AE3804 EDX=0000FF00 EBX=13A2BEBF ESP=0018FE28 EBP=0018FF28 ESI=0040C705 EDI=0018FE48 EFLAG=00000293
0040BF11	BTC      DX, 0x4                                          EAX=000000F8 ECX=77AE3804 EDX=0000FF00 EBX=13A2BEBF ESP=0018FE24 EBP=0018FF28 ESI=0040C705 EDI=0018FE48 EFLAG=00000293
0040BF16	PUSH     ESP                                              EAX=000000F8 ECX=77AE3804 EDX=0000FF10 EBX=13A2BEBF ESP=0018FE24 EBP=0018FF28 ESI=0040C705 EDI=0018FE48 EFLAG=00000292
0040BF17	MOVZX    DX, AL                                           EAX=000000F8 ECX=77AE3804 EDX=0000FF10 EBX=13A2BEBF ESP=0018FE20 EBP=0018FF28 ESI=0040C705 EDI=0018FE48 EFLAG=00000292
0040BF1B	ROR      AL, 0x7                                          EAX=000000F8 ECX=77AE3804 EDX=000000F8 EBX=13A2BEBF ESP=0018FE20 EBP=0018FF28 ESI=0040C705 EDI=0018FE48 EFLAG=00000292
0040BF1E	ROL      DH, 0x3                                          EAX=000000F1 ECX=77AE3804 EDX=000000F8 EBX=13A2BEBF ESP=0018FE20 EBP=0018FF28 ESI=0040C705 EDI=0018FE48 EFLAG=00000293
0040BF21	SUB      AL, 0x30                                         EAX=000000F1 ECX=77AE3804 EDX=000000F8 EBX=13A2BEBF ESP=0018FE20 EBP=0018FF28 ESI=0040C705 EDI=0018FE48 EFLAG=00000292
0040BF23	SHR      DX, 0x9                                          EAX=000000C1 ECX=77AE3804 EDX=000000F8 EBX=13A2BEBF ESP=0018FE20 EBP=0018FF28 ESI=0040C705 EDI=0018FE48 EFLAG=00000282
0040BF27	XOR      AL, 0xce                                         EAX=000000C1 ECX=77AE3804 EDX=00000000 EBX=13A2BEBF ESP=0018FE20 EBP=0018FF28 ESI=0040C705 EDI=0018FE48 EFLAG=00000246
0040BF29	ADC      DL, 0xdb                                         EAX=0000000F ECX=77AE3804 EDX=00000000 EBX=13A2BEBF ESP=0018FE20 EBP=0018FF28 ESI=0040C705 EDI=0018FE48 EFLAG=00000206
0040BF2C	BT       EBX, EDI                                         EAX=0000000F ECX=77AE3804 EDX=000000DB EBX=13A2BEBF ESP=0018FE20 EBP=0018FF28 ESI=0040C705 EDI=0018FE48 EFLAG=00000286
0040BF2F	SETL     DH                                               EAX=0000000F ECX=77AE3804 EDX=000000DB EBX=13A2BEBF ESP=0018FE20 EBP=0018FF28 ESI=0040C705 EDI=0018FE48 EFLAG=00000286
0040BF32	SUB      BL, AL                                           EAX=0000000F ECX=77AE3804 EDX=000001DB EBX=13A2BEBF ESP=0018FE20 EBP=0018FF28 ESI=0040C705 EDI=0018FE48 EFLAG=00000286
0040BF34	STC                                                       EAX=0000000F ECX=77AE3804 EDX=000001DB EBX=13A2BEB0 ESP=0018FE20 EBP=0018FF28 ESI=0040C705 EDI=0018FE48 EFLAG=00000282
0040BF35	MOVZX    EAX, AL                                          EAX=0000000F ECX=77AE3804 EDX=000001DB EBX=13A2BEB0 ESP=0018FE20 EBP=0018FF28 ESI=0040C705 EDI=0018FE48 EFLAG=00000283
0040BF38	NOT      EDX                                              EAX=0000000F ECX=77AE3804 EDX=000001DB EBX=13A2BEB0 ESP=0018FE20 EBP=0018FF28 ESI=0040C705 EDI=0018FE48 EFLAG=00000283
0040BF3A	BSF      EDX, EDI                                         EAX=0000000F ECX=77AE3804 EDX=FFFFFE24 EBX=13A2BEB0 ESP=0018FE20 EBP=0018FF28 ESI=0040C705 EDI=0018FE48 EFLAG=00000283
0040BF3E	CMC                                                       EAX=0000000F ECX=77AE3804 EDX=FFFF0003 EBX=13A2BEB0 ESP=0018FE20 EBP=0018FF28 ESI=0040C705 EDI=0018FE48 EFLAG=00000206
0040BF3F	SAL      DH, CL                                           EAX=0000000F ECX=77AE3804 EDX=FFFF0003 EBX=13A2BEB0 ESP=0018FE20 EBP=0018FF28 ESI=0040C705 EDI=0018FE48 EFLAG=00000207
0040BF41	MOV      EDX, [EAX*4+0x40a51f]                            EAX=0000000F ECX=77AE3804 EDX=FFFF0003 EBX=13A2BEB0 ESP=0018FE20 EBP=0018FF28 ESI=0040C705 EDI=0018FE48 EFLAG=00000246
0040BF48	TEST     EDX, 0xe75c2a09                                  EAX=0000000F ECX=77AE3804 EDX=2BFA6887 EBX=13A2BEB0 ESP=0018FE20 EBP=0018FF28 ESI=0040C705 EDI=0018FE48 EFLAG=00000246
0040BF4E	TEST     BL, DL                                           EAX=0000000F ECX=77AE3804 EDX=2BFA6887 EBX=13A2BEB0 ESP=0018FE20 EBP=0018FF28 ESI=0040C705 EDI=0018FE48 EFLAG=00000202
0040BF50	SUB      EDX, 0x2bb9b71b                                  EAX=0000000F ECX=77AE3804 EDX=2BFA6887 EBX=13A2BEB0 ESP=0018FE20 EBP=0018FF28 ESI=0040C705 EDI=0018FE48 EFLAG=00000282
0040BF56	CALL     0x40bd78                                         EAX=0000000F ECX=77AE3804 EDX=0040B16C EBX=13A2BEB0 ESP=0018FE20 EBP=0018FF28 ESI=0040C705 EDI=0018FE48 EFLAG=00000216
0040BD78	PUSH     EDX                                              EAX=0000000F ECX=77AE3804 EDX=0040B16C EBX=13A2BEB0 ESP=0018FE1C EBP=0018FF28 ESI=0040C705 EDI=0018FE48 EFLAG=00000216
0040BD79	DEC      ESI                                              EAX=0000000F ECX=77AE3804 EDX=0040B16C EBX=13A2BEB0 ESP=0018FE18 EBP=0018FF28 ESI=0040C705 EDI=0018FE48 EFLAG=00000216
0040BD7A	PUSHF                                                     EAX=0000000F ECX=77AE3804 EDX=0040B16C EBX=13A2BEB0 ESP=0018FE18 EBP=0018FF28 ESI=0040C704 EDI=0018FE48 EFLAG=00000202
0040A91F	MOV      [ESP], DH                                        EAX=0000000F ECX=77AE3804 EDX=0040B16C EBX=13A2BEB0 ESP=0018FE14 EBP=0018FF28 ESI=0040C704 EDI=0018FE48 EFLAG=00000202
0040A922	MOV      [ESP+0x30], EDX                                  EAX=0000000F ECX=77AE3804 EDX=0040B16C EBX=13A2BEB0 ESP=0018FE14 EBP=0018FF28 ESI=0040C704 EDI=0018FE48 EFLAG=00000202
0040A926	MOV      [ESP], AL                                        EAX=0000000F ECX=77AE3804 EDX=0040B16C EBX=13A2BEB0 ESP=0018FE14 EBP=0018FF28 ESI=0040C704 EDI=0018FE48 EFLAG=00000202
0040A929	PUSH     DWORD [ESP+0x30]                                 EAX=0000000F ECX=77AE3804 EDX=0040B16C EBX=13A2BEB0 ESP=0018FE14 EBP=0018FF28 ESI=0040C704 EDI=0018FE48 EFLAG=00000202
0040A92D	RET      0x34                                             EAX=0000000F ECX=77AE3804 EDX=0040B16C EBX=13A2BEB0 ESP=0018FE10 EBP=0018FF28 ESI=0040C704 EDI=0018FE48 EFLAG=00000202
0040B16C	CALL     0x40bb09                                         EAX=0000000F ECX=77AE3804 EDX=0040B16C EBX=13A2BEB0 ESP=0018FE48 EBP=0018FF28 ESI=0040C704 EDI=0018FE48 EFLAG=00000202
0040BB09	SUB      DL, AH                                           EAX=0000000F ECX=77AE3804 EDX=0040B16C EBX=13A2BEB0 ESP=0018FE44 EBP=0018FF28 ESI=0040C704 EDI=0018FE48 EFLAG=00000202
0040BB0B	MOV      AL, [ESI-0x1]                                    EAX=0000000F ECX=77AE3804 EDX=0040B16C EBX=13A2BEB0 ESP=0018FE44 EBP=0018FF28 ESI=0040C704 EDI=0018FE48 EFLAG=00000206
0040BB0E	LEA      ESP, [ESP+0x4]                                   EAX=00000011 ECX=77AE3804 EDX=0040B16C EBX=13A2BEB0 ESP=0018FE44 EBP=0018FF28 ESI=0040C704 EDI=0018FE48 EFLAG=00000206
0040BB12	JNP      0x40bd9a                                         EAX=00000011 ECX=77AE3804 EDX=0040B16C EBX=13A2BEB0 ESP=0018FE48 EBP=0018FF28 ESI=0040C704 EDI=0018FE48 EFLAG=00000206
0040BB18	BSR      EDX, ECX                                         EAX=00000011 ECX=77AE3804 EDX=0040B16C EBX=13A2BEB0 ESP=0018FE48 EBP=0018FF28 ESI=0040C704 EDI=0018FE48 EFLAG=00000206
0040BB1B	ADD      AL, BL                                           EAX=00000011 ECX=77AE3804 EDX=0000001E EBX=13A2BEB0 ESP=0018FE48 EBP=0018FF28 ESI=0040C704 EDI=0018FE48 EFLAG=00000206
0040BB1D	PUSH     EDX                                              EAX=000000C1 ECX=77AE3804 EDX=0000001E EBX=13A2BEB0 ESP=0018FE48 EBP=0018FF28 ESI=0040C704 EDI=0018FE48 EFLAG=00000282
0040BB1E	DEC      AL                                               EAX=000000C1 ECX=77AE3804 EDX=0000001E EBX=13A2BEB0 ESP=0018FE44 EBP=0018FF28 ESI=0040C704 EDI=0018FE48 EFLAG=00000282
0040BB20	DEC      DH                                               EAX=000000C0 ECX=77AE3804 EDX=0000001E EBX=13A2BEB0 ESP=0018FE44 EBP=0018FF28 ESI=0040C704 EDI=0018FE48 EFLAG=00000286
0040BB22	NEG      AL                                               EAX=000000C0 ECX=77AE3804 EDX=0000FF1E EBX=13A2BEB0 ESP=0018FE44 EBP=0018FF28 ESI=0040C704 EDI=0018FE48 EFLAG=00000296
0040BB24	CALL     0x40b99f                                         EAX=00000040 ECX=77AE3804 EDX=0000FF1E EBX=13A2BEB0 ESP=0018FE44 EBP=0018FF28 ESI=0040C704 EDI=0018FE48 EFLAG=00000203
0040B99F	BTC      EDX, 0xe                                         EAX=00000040 ECX=77AE3804 EDX=0000FF1E EBX=13A2BEB0 ESP=0018FE40 EBP=0018FF28 ESI=0040C704 EDI=0018FE48 EFLAG=00000203
0040B9A3	MOVZX    EDX, DL                                          EAX=00000040 ECX=77AE3804 EDX=0000BF1E EBX=13A2BEB0 ESP=0018FE40 EBP=0018FF28 ESI=0040C704 EDI=0018FE48 EFLAG=00000203
0040B9A6	CMC                                                       EAX=00000040 ECX=77AE3804 EDX=0000001E EBX=13A2BEB0 ESP=0018FE40 EBP=0018FF28 ESI=0040C704 EDI=0018FE48 EFLAG=00000203
0040B9A7	ROR      AL, 0x1                                          EAX=00000040 ECX=77AE3804 EDX=0000001E EBX=13A2BEB0 ESP=0018FE40 EBP=0018FF28 ESI=0040C704 EDI=0018FE48 EFLAG=00000202
0040B9A9	SBB      DX, 0x612a                                       EAX=00000020 ECX=77AE3804 EDX=0000001E EBX=13A2BEB0 ESP=0018FE40 EBP=0018FF28 ESI=0040C704 EDI=0018FE48 EFLAG=00000202
0040B9AE	ADC      DL, DL                                           EAX=00000020 ECX=77AE3804 EDX=00009EF4 EBX=13A2BEB0 ESP=0018FE40 EBP=0018FF28 ESI=0040C704 EDI=0018FE48 EFLAG=00000283
0040B9B0	ADD      DX, CX                                           EAX=00000020 ECX=77AE3804 EDX=00009EE9 EBX=13A2BEB0 ESP=0018FE40 EBP=0018FF28 ESI=0040C704 EDI=0018FE48 EFLAG=00000283
0040B9B3	BSWAP    DX                                               EAX=00000020 ECX=77AE3804 EDX=0000D6ED EBX=13A2BEB0 ESP=0018FE40 EBP=0018FF28 ESI=0040C704 EDI=0018FE48 EFLAG=00000286
0040B9B6	ADD      BL, AL                                           EAX=00000020 ECX=77AE3804 EDX=00000000 EBX=13A2BEB0 ESP=0018FE40 EBP=0018FF28 ESI=0040C704 EDI=0018FE48 EFLAG=00000286
0040B9B8	AND      EDX, ESP                                         EAX=00000020 ECX=77AE3804 EDX=00000000 EBX=13A2BED0 ESP=0018FE40 EBP=0018FF28 ESI=0040C704 EDI=0018FE48 EFLAG=00000282
0040B9BA	LEA      ESI, [ESI-0x1]                                   EAX=00000020 ECX=77AE3804 EDX=00000000 EBX=13A2BED0 ESP=0018FE40 EBP=0018FF28 ESI=0040C704 EDI=0018FE48 EFLAG=00000246
0040B9BD	SHRD     DX, SP, CL                                       EAX=00000020 ECX=77AE3804 EDX=00000000 EBX=13A2BED0 ESP=0018FE40 EBP=0018FF28 ESI=0040C703 EDI=0018FE48 EFLAG=00000246
0040B9C1	INC      DX                                               EAX=00000020 ECX=77AE3804 EDX=00000000 EBX=13A2BED0 ESP=0018FE40 EBP=0018FF28 ESI=0040C703 EDI=0018FE48 EFLAG=00000246
0040B9C4	SBB      EDX, EDX                                         EAX=00000020 ECX=77AE3804 EDX=00000001 EBX=13A2BED0 ESP=0018FE40 EBP=0018FF28 ESI=0040C703 EDI=0018FE48 EFLAG=00000202
0040B9C6	ADD      DX, 0x9dea                                       EAX=00000020 ECX=77AE3804 EDX=00000000 EBX=13A2BED0 ESP=0018FE40 EBP=0018FF28 ESI=0040C703 EDI=0018FE48 EFLAG=00000246
0040B9CB	MOV      EDX, [EBP+0x0]                                   EAX=00000020 ECX=77AE3804 EDX=00009DEA EBX=13A2BED0 ESP=0018FE40 EBP=0018FF28 ESI=0040C703 EDI=0018FE48 EFLAG=00000282
0040B9CE	PUSHA                                                     EAX=00000020 ECX=77AE3804 EDX=00000202 EBX=13A2BED0 ESP=0018FE40 EBP=0018FF28 ESI=0040C703 EDI=0018FE48 EFLAG=00000282
0040B9CF	STC                                                       EAX=00000020 ECX=77AE3804 EDX=00000202 EBX=13A2BED0 ESP=0018FE20 EBP=0018FF28 ESI=0040C703 EDI=0018FE48 EFLAG=00000282
0040B9D0	CALL     0x40c120                                         EAX=00000020 ECX=77AE3804 EDX=00000202 EBX=13A2BED0 ESP=0018FE20 EBP=0018FF28 ESI=0040C703 EDI=0018FE48 EFLAG=00000283
0040B3B2	ADD      EBP, 0x4                                         EAX=00000020 ECX=77AE3804 EDX=00000202 EBX=13A2BED0 ESP=0018FE1C EBP=0018FF28 ESI=0040C703 EDI=0018FE48 EFLAG=00000283
0040B3B5	CALL     0x40c167                                         EAX=00000020 ECX=77AE3804 EDX=00000202 EBX=13A2BED0 ESP=0018FE1C EBP=0018FF2C ESI=0040C703 EDI=0018FE48 EFLAG=00000202
0040C167	MOV      [EAX+EDI], EDX                                   EAX=00000020 ECX=77AE3804 EDX=00000202 EBX=13A2BED0 ESP=0018FE18 EBP=0018FF2C ESI=0040C703 EDI=0018FE48 EFLAG=00000202
0040C16A	MOV      WORD [ESP+0x4], 0x4a62                           EAX=00000020 ECX=77AE3804 EDX=00000202 EBX=13A2BED0 ESP=0018FE18 EBP=0018FF2C ESI=0040C703 EDI=0018FE48 EFLAG=00000202
0040C171	MOV      [ESP], DH                                        EAX=00000020 ECX=77AE3804 EDX=00000202 EBX=13A2BED0 ESP=0018FE18 EBP=0018FF2C ESI=0040C703 EDI=0018FE48 EFLAG=00000202
0040C174	PUSHF                                                     EAX=00000020 ECX=77AE3804 EDX=00000202 EBX=13A2BED0 ESP=0018FE18 EBP=0018FF2C ESI=0040C703 EDI=0018FE48 EFLAG=00000202
0040C175	PUSHF                                                     EAX=00000020 ECX=77AE3804 EDX=00000202 EBX=13A2BED0 ESP=0018FE14 EBP=0018FF2C ESI=0040C703 EDI=0018FE48 EFLAG=00000202
0040C176	LEA      ESP, [ESP+0x38]                                  EAX=00000020 ECX=77AE3804 EDX=00000202 EBX=13A2BED0 ESP=0018FE10 EBP=0018FF2C ESI=0040C703 EDI=0018FE48 EFLAG=00000202
0040BEFD	BSWAP    DX                                               EAX=00000020 ECX=77AE3804 EDX=00000202 EBX=13A2BED0 ESP=0018FE48 EBP=0018FF2C ESI=0040C703 EDI=0018FE48 EFLAG=00000202
0040BF00	RCL      DL, CL                                           EAX=00000020 ECX=77AE3804 EDX=00000000 EBX=13A2BED0 ESP=0018FE48 EBP=0018FF2C ESI=0040C703 EDI=0018FE48 EFLAG=00000202
0040BF02	PUSHA                                                     EAX=00000020 ECX=77AE3804 EDX=00000000 EBX=13A2BED0 ESP=0018FE48 EBP=0018FF2C ESI=0040C703 EDI=0018FE48 EFLAG=00000202
0040BF03	AND      EDX, 0xfdc85d80                                  EAX=00000020 ECX=77AE3804 EDX=00000000 EBX=13A2BED0 ESP=0018FE28 EBP=0018FF2C ESI=0040C703 EDI=0018FE48 EFLAG=00000202
0040BF09	MOV      AL, [ESI-0x1]                                    EAX=00000020 ECX=77AE3804 EDX=00000000 EBX=13A2BED0 ESP=0018FE28 EBP=0018FF2C ESI=0040C703 EDI=0018FE48 EFLAG=00000246
0040BF0C	DEC      DH                                               EAX=00000008 ECX=77AE3804 EDX=00000000 EBX=13A2BED0 ESP=0018FE28 EBP=0018FF2C ESI=0040C703 EDI=0018FE48 EFLAG=00000246
0040BF0E	SUB      AL, BL                                           EAX=00000008 ECX=77AE3804 EDX=0000FF00 EBX=13A2BED0 ESP=0018FE28 EBP=0018FF2C ESI=0040C703 EDI=0018FE48 EFLAG=00000296
0040BF10	PUSHF                                                     EAX=00000038 ECX=77AE3804 EDX=0000FF00 EBX=13A2BED0 ESP=0018FE28 EBP=0018FF2C ESI=0040C703 EDI=0018FE48 EFLAG=00000203
0040BF11	BTC      DX, 0x4                                          EAX=00000038 ECX=77AE3804 EDX=0000FF00 EBX=13A2BED0 ESP=0018FE24 EBP=0018FF2C ESI=0040C703 EDI=0018FE48 EFLAG=00000203
0040BF16	PUSH     ESP                                              EAX=00000038 ECX=77AE3804 EDX=0000FF10 EBX=13A2BED0 ESP=0018FE24 EBP=0018FF2C ESI=0040C703 EDI=0018FE48 EFLAG=00000202
0040BF17	MOVZX    DX, AL                                           EAX=00000038 ECX=77AE3804 EDX=0000FF10 EBX=13A2BED0 ESP=0018FE20 EBP=0018FF2C ESI=0040C703 EDI=0018FE48 EFLAG=00000202
0040BF1B	ROR      AL, 0x7                                          EAX=00000038 ECX=77AE3804 EDX=00000038 EBX=13A2BED0 ESP=0018FE20 EBP=0018FF2C ESI=0040C703 EDI=0018FE48 EFLAG=00000202
0040BF1E	ROL      DH, 0x3                                          EAX=00000070 ECX=77AE3804 EDX=00000038 EBX=13A2BED0 ESP=0018FE20 EBP=0018FF2C ESI=0040C703 EDI=0018FE48 EFLAG=00000A02
0040BF21	SUB      AL, 0x30                                         EAX=00000070 ECX=77AE3804 EDX=00000038 EBX=13A2BED0 ESP=0018FE20 EBP=0018FF2C ESI=0040C703 EDI=0018FE48 EFLAG=00000202
0040BF23	SHR      DX, 0x9                                          EAX=00000040 ECX=77AE3804 EDX=00000038 EBX=13A2BED0 ESP=0018FE20 EBP=0018FF2C ESI=0040C703 EDI=0018FE48 EFLAG=00000202
0040BF27	XOR      AL, 0xce                                         EAX=00000040 ECX=77AE3804 EDX=00000000 EBX=13A2BED0 ESP=0018FE20 EBP=0018FF2C ESI=0040C703 EDI=0018FE48 EFLAG=00000246
0040BF29	ADC      DL, 0xdb                                         EAX=0000008E ECX=77AE3804 EDX=00000000 EBX=13A2BED0 ESP=0018FE20 EBP=0018FF2C ESI=0040C703 EDI=0018FE48 EFLAG=00000286
0040BF2C	BT       EBX, EDI                                         EAX=0000008E ECX=77AE3804 EDX=000000DB EBX=13A2BED0 ESP=0018FE20 EBP=0018FF2C ESI=0040C703 EDI=0018FE48 EFLAG=00000286
0040BF2F	SETL     DH                                               EAX=0000008E ECX=77AE3804 EDX=000000DB EBX=13A2BED0 ESP=0018FE20 EBP=0018FF2C ESI=0040C703 EDI=0018FE48 EFLAG=00000286
0040BF32	SUB      BL, AL                                           EAX=0000008E ECX=77AE3804 EDX=000001DB EBX=13A2BED0 ESP=0018FE20 EBP=0018FF2C ESI=0040C703 EDI=0018FE48 EFLAG=00000286
0040BF34	STC                                                       EAX=0000008E ECX=77AE3804 EDX=000001DB EBX=13A2BE42 ESP=0018FE20 EBP=0018FF2C ESI=0040C703 EDI=0018FE48 EFLAG=00000216
0040BF35	MOVZX    EAX, AL                                          EAX=0000008E ECX=77AE3804 EDX=000001DB EBX=13A2BE42 ESP=0018FE20 EBP=0018FF2C ESI=0040C703 EDI=0018FE48 EFLAG=00000217
0040BF38	NOT      EDX                                              EAX=0000008E ECX=77AE3804 EDX=000001DB EBX=13A2BE42 ESP=0018FE20 EBP=0018FF2C ESI=0040C703 EDI=0018FE48 EFLAG=00000217
0040BF3A	BSF      EDX, EDI                                         EAX=0000008E ECX=77AE3804 EDX=FFFFFE24 EBX=13A2BE42 ESP=0018FE20 EBP=0018FF2C ESI=0040C703 EDI=0018FE48 EFLAG=00000217
0040BF3E	CMC                                                       EAX=0000008E ECX=77AE3804 EDX=FFFF0003 EBX=13A2BE42 ESP=0018FE20 EBP=0018FF2C ESI=0040C703 EDI=0018FE48 EFLAG=00000206
0040BF3F	SAL      DH, CL                                           EAX=0000008E ECX=77AE3804 EDX=FFFF0003 EBX=13A2BE42 ESP=0018FE20 EBP=0018FF2C ESI=0040C703 EDI=0018FE48 EFLAG=00000207
0040BF41	MOV      EDX, [EAX*4+0x40a51f]                            EAX=0000008E ECX=77AE3804 EDX=FFFF0003 EBX=13A2BE42 ESP=0018FE20 EBP=0018FF2C ESI=0040C703 EDI=0018FE48 EFLAG=00000246
0040BF48	TEST     EDX, 0xe75c2a09                                  EAX=0000008E ECX=77AE3804 EDX=2BFA7AAA EBX=13A2BE42 ESP=0018FE20 EBP=0018FF2C ESI=0040C703 EDI=0018FE48 EFLAG=00000246
0040BF4E	TEST     BL, DL                                           EAX=0000008E ECX=77AE3804 EDX=2BFA7AAA EBX=13A2BE42 ESP=0018FE20 EBP=0018FF2C ESI=0040C703 EDI=0018FE48 EFLAG=00000202
0040BF50	SUB      EDX, 0x2bb9b71b                                  EAX=0000008E ECX=77AE3804 EDX=2BFA7AAA EBX=13A2BE42 ESP=0018FE20 EBP=0018FF2C ESI=0040C703 EDI=0018FE48 EFLAG=00000202
0040BF56	CALL     0x40bd78                                         EAX=0000008E ECX=77AE3804 EDX=0040C38F EBX=13A2BE42 ESP=0018FE20 EBP=0018FF2C ESI=0040C703 EDI=0018FE48 EFLAG=00000212
0040BD78	PUSH     EDX                                              EAX=0000008E ECX=77AE3804 EDX=0040C38F EBX=13A2BE42 ESP=0018FE1C EBP=0018FF2C ESI=0040C703 EDI=0018FE48 EFLAG=00000212
0040BD79	DEC      ESI                                              EAX=0000008E ECX=77AE3804 EDX=0040C38F EBX=13A2BE42 ESP=0018FE18 EBP=0018FF2C ESI=0040C703 EDI=0018FE48 EFLAG=00000212
0040BD7A	PUSHF                                                     EAX=0000008E ECX=77AE3804 EDX=0040C38F EBX=13A2BE42 ESP=0018FE18 EBP=0018FF2C ESI=0040C702 EDI=0018FE48 EFLAG=00000202
0040A91F	MOV      [ESP], DH                                        EAX=0000008E ECX=77AE3804 EDX=0040C38F EBX=13A2BE42 ESP=0018FE14 EBP=0018FF2C ESI=0040C702 EDI=0018FE48 EFLAG=00000202
0040A922	MOV      [ESP+0x30], EDX                                  EAX=0000008E ECX=77AE3804 EDX=0040C38F EBX=13A2BE42 ESP=0018FE14 EBP=0018FF2C ESI=0040C702 EDI=0018FE48 EFLAG=00000202
0040A926	MOV      [ESP], AL                                        EAX=0000008E ECX=77AE3804 EDX=0040C38F EBX=13A2BE42 ESP=0018FE14 EBP=0018FF2C ESI=0040C702 EDI=0018FE48 EFLAG=00000202
0040A929	PUSH     DWORD [ESP+0x30]                                 EAX=0000008E ECX=77AE3804 EDX=0040C38F EBX=13A2BE42 ESP=0018FE14 EBP=0018FF2C ESI=0040C702 EDI=0018FE48 EFLAG=00000202
0040A92D	RET      0x34                                             EAX=0000008E ECX=77AE3804 EDX=0040C38F EBX=13A2BE42 ESP=0018FE10 EBP=0018FF2C ESI=0040C702 EDI=0018FE48 EFLAG=00000202
0040C38F	BT       BX, BP                                           EAX=0000008E ECX=77AE3804 EDX=0040C38F EBX=13A2BE42 ESP=0018FE48 EBP=0018FF2C ESI=0040C702 EDI=0018FE48 EFLAG=00000202
0040C393	MOV      DH, CH                                           EAX=0000008E ECX=77AE3804 EDX=0040C38F EBX=13A2BE42 ESP=0018FE48 EBP=0018FF2C ESI=0040C702 EDI=0018FE48 EFLAG=00000203
0040C395	MOVZX    EAX, BYTE [ESI-0x1]                              EAX=0000008E ECX=77AE3804 EDX=0040388F EBX=13A2BE42 ESP=0018FE48 EBP=0018FF2C ESI=0040C702 EDI=0018FE48 EFLAG=00000203
0040C399	PUSHF                                                     EAX=0000007F ECX=77AE3804 EDX=0040388F EBX=13A2BE42 ESP=0018FE48 EBP=0018FF2C ESI=0040C702 EDI=0018FE48 EFLAG=00000203
0040C39A	SHRD     DX, AX, CL                                       EAX=0000007F ECX=77AE3804 EDX=0040388F EBX=13A2BE42 ESP=0018FE44 EBP=0018FF2C ESI=0040C702 EDI=0018FE48 EFLAG=00000203
0040C39E	ROR      DL, 0x4                                          EAX=0000007F ECX=77AE3804 EDX=0040F388 EBX=13A2BE42 ESP=0018FE44 EBP=0018FF2C ESI=0040C702 EDI=0018FE48 EFLAG=00000287
0040C3A1	ADD      AL, BL                                           EAX=0000007F ECX=77AE3804 EDX=0040F388 EBX=13A2BE42 ESP=0018FE44 EBP=0018FF2C ESI=0040C702 EDI=0018FE48 EFLAG=00000A87
0040C3A3	PUSHF                                                     EAX=000000C1 ECX=77AE3804 EDX=0040F388 EBX=13A2BE42 ESP=0018FE44 EBP=0018FF2C ESI=0040C702 EDI=0018FE48 EFLAG=00000A92
0040C3A4	MOV      [ESP+0x4], DL                                    EAX=000000C1 ECX=77AE3804 EDX=0040F388 EBX=13A2BE42 ESP=0018FE40 EBP=0018FF2C ESI=0040C702 EDI=0018FE48 EFLAG=00000A92
0040C3A8	POP      EDX                                              EAX=000000C1 ECX=77AE3804 EDX=0040F388 EBX=13A2BE42 ESP=0018FE40 EBP=0018FF2C ESI=0040C702 EDI=0018FE48 EFLAG=00000A92
0040C3A9	LEA      EDX, [0x550aa025]                                EAX=000000C1 ECX=77AE3804 EDX=00000A92 EBX=13A2BE42 ESP=0018FE44 EBP=0018FF2C ESI=0040C702 EDI=0018FE48 EFLAG=00000A92
0040C3B0	DEC      AL                                               EAX=000000C1 ECX=77AE3804 EDX=550AA025 EBX=13A2BE42 ESP=0018FE44 EBP=0018FF2C ESI=0040C702 EDI=0018FE48 EFLAG=00000A92
0040C3B2	BSWAP    DX                                               EAX=000000C0 ECX=77AE3804 EDX=550AA025 EBX=13A2BE42 ESP=0018FE44 EBP=0018FF2C ESI=0040C702 EDI=0018FE48 EFLAG=00000286
0040C3B5	BSR      EDX, EBP                                         EAX=000000C0 ECX=77AE3804 EDX=550A0000 EBX=13A2BE42 ESP=0018FE44 EBP=0018FF2C ESI=0040C702 EDI=0018FE48 EFLAG=00000286
0040C3B9	LEA      ESI, [ESI-0x1]                                   EAX=000000C0 ECX=77AE3804 EDX=550A000F EBX=13A2BE42 ESP=0018FE44 EBP=0018FF2C ESI=0040C702 EDI=0018FE48 EFLAG=00000206
0040C3BC	ADD      DH, CL                                           EAX=000000C0 ECX=77AE3804 EDX=550A000F EBX=13A2BE42 ESP=0018FE44 EBP=0018FF2C ESI=0040C701 EDI=0018FE48 EFLAG=00000206
0040C3BE	POP      EDX                                              EAX=000000C0 ECX=77AE3804 EDX=550A040F EBX=13A2BE42 ESP=0018FE44 EBP=0018FF2C ESI=0040C701 EDI=0018FE48 EFLAG=00000202
0040C3BF	XOR      DL, 0x77                                         EAX=000000C0 ECX=77AE3804 EDX=00000288 EBX=13A2BE42 ESP=0018FE48 EBP=0018FF2C ESI=0040C701 EDI=0018FE48 EFLAG=00000202
0040C3C2	CLC                                                       EAX=000000C0 ECX=77AE3804 EDX=000002FF EBX=13A2BE42 ESP=0018FE48 EBP=0018FF2C ESI=0040C701 EDI=0018FE48 EFLAG=00000286
0040C3C3	NEG      AL                                               EAX=000000C0 ECX=77AE3804 EDX=000002FF EBX=13A2BE42 ESP=0018FE48 EBP=0018FF2C ESI=0040C701 EDI=0018FE48 EFLAG=00000286
0040C3C5	STC                                                       EAX=00000040 ECX=77AE3804 EDX=000002FF EBX=13A2BE42 ESP=0018FE48 EBP=0018FF2C ESI=0040C701 EDI=0018FE48 EFLAG=00000203
0040C3C6	MOVSX    DX, BL                                           EAX=00000040 ECX=77AE3804 EDX=000002FF EBX=13A2BE42 ESP=0018FE48 EBP=0018FF2C ESI=0040C701 EDI=0018FE48 EFLAG=00000203
0040C3CA	ROR      AL, 0x1                                          EAX=00000040 ECX=77AE3804 EDX=00000042 EBX=13A2BE42 ESP=0018FE48 EBP=0018FF2C ESI=0040C701 EDI=0018FE48 EFLAG=00000203
0040C3CC	BSWAP    EDX                                              EAX=00000020 ECX=77AE3804 EDX=00000042 EBX=13A2BE42 ESP=0018FE48 EBP=0018FF2C ESI=0040C701 EDI=0018FE48 EFLAG=00000202
0040C3CE	ADD      BL, AL                                           EAX=00000020 ECX=77AE3804 EDX=42000000 EBX=13A2BE42 ESP=0018FE48 EBP=0018FF2C ESI=0040C701 EDI=0018FE48 EFLAG=00000202
0040C3D0	BT       DI, 0x1                                          EAX=00000020 ECX=77AE3804 EDX=42000000 EBX=13A2BE62 ESP=0018FE48 EBP=0018FF2C ESI=0040C701 EDI=0018FE48 EFLAG=00000202
0040C3D5	BT       BX, SP                                           EAX=00000020 ECX=77AE3804 EDX=42000000 EBX=13A2BE62 ESP=0018FE48 EBP=0018FF2C ESI=0040C701 EDI=0018FE48 EFLAG=00000202
0040C3D9	MOV      EDX, [EAX+EDI]                                   EAX=00000020 ECX=77AE3804 EDX=42000000 EBX=13A2BE62 ESP=0018FE48 EBP=0018FF2C ESI=0040C701 EDI=0018FE48 EFLAG=00000202
0040B380	CLC                                                       EAX=00000020 ECX=77AE3804 EDX=00000202 EBX=13A2BE62 ESP=0018FE48 EBP=0018FF2C ESI=0040C701 EDI=0018FE48 EFLAG=00000202
0040B381	TEST     SI, BP                                           EAX=00000020 ECX=77AE3804 EDX=00000202 EBX=13A2BE62 ESP=0018FE48 EBP=0018FF2C ESI=0040C701 EDI=0018FE48 EFLAG=00000202
0040B384	SUB      EBP, 0x4                                         EAX=00000020 ECX=77AE3804 EDX=00000202 EBX=13A2BE62 ESP=0018FE48 EBP=0018FF2C ESI=0040C701 EDI=0018FE48 EFLAG=00000286
0040B387	PUSHA                                                     EAX=00000020 ECX=77AE3804 EDX=00000202 EBX=13A2BE62 ESP=0018FE48 EBP=0018FF28 ESI=0040C701 EDI=0018FE48 EFLAG=00000206
0040B388	MOV      [ESP+0x4], CH                                    EAX=00000020 ECX=77AE3804 EDX=00000202 EBX=13A2BE62 ESP=0018FE28 EBP=0018FF28 ESI=0040C701 EDI=0018FE48 EFLAG=00000206
0040B38C	PUSHF                                                     EAX=00000020 ECX=77AE3804 EDX=00000202 EBX=13A2BE62 ESP=0018FE28 EBP=0018FF28 ESI=0040C701 EDI=0018FE48 EFLAG=00000206
0040B38D	MOV      [EBP+0x0], EDX                                   EAX=00000020 ECX=77AE3804 EDX=00000202 EBX=13A2BE62 ESP=0018FE24 EBP=0018FF28 ESI=0040C701 EDI=0018FE48 EFLAG=00000206
0040B390	PUSH     DWORD 0x7479a752                                 EAX=00000020 ECX=77AE3804 EDX=00000202 EBX=13A2BE62 ESP=0018FE24 EBP=0018FF28 ESI=0040C701 EDI=0018FE48 EFLAG=00000206
0040B395	PUSHF                                                     EAX=00000020 ECX=77AE3804 EDX=00000202 EBX=13A2BE62 ESP=0018FE20 EBP=0018FF28 ESI=0040C701 EDI=0018FE48 EFLAG=00000206
0040B396	PUSHF                                                     EAX=00000020 ECX=77AE3804 EDX=00000202 EBX=13A2BE62 ESP=0018FE1C EBP=0018FF28 ESI=0040C701 EDI=0018FE48 EFLAG=00000206
0040B397	PUSH     EAX                                              EAX=00000020 ECX=77AE3804 EDX=00000202 EBX=13A2BE62 ESP=0018FE18 EBP=0018FF28 ESI=0040C701 EDI=0018FE48 EFLAG=00000206
0040B398	LEA      ESP, [ESP+0x34]                                  EAX=00000020 ECX=77AE3804 EDX=00000202 EBX=13A2BE62 ESP=0018FE14 EBP=0018FF28 ESI=0040C701 EDI=0018FE48 EFLAG=00000206
0040C360	TEST     DH, 0x76                                         EAX=00000020 ECX=77AE3804 EDX=00000202 EBX=13A2BE62 ESP=0018FE48 EBP=0018FF28 ESI=0040C701 EDI=0018FE48 EFLAG=00000206
0040C363	LEA      EAX, [EDI+0x50]                                  EAX=00000020 ECX=77AE3804 EDX=00000202 EBX=13A2BE62 ESP=0018FE48 EBP=0018FF28 ESI=0040C701 EDI=0018FE48 EFLAG=00000202
0040C366	PUSH     DWORD 0xa76b4735                                 EAX=0018FE98 ECX=77AE3804 EDX=00000202 EBX=13A2BE62 ESP=0018FE48 EBP=0018FF28 ESI=0040C701 EDI=0018FE48 EFLAG=00000202
0040C36B	STC                                                       EAX=0018FE98 ECX=77AE3804 EDX=00000202 EBX=13A2BE62 ESP=0018FE44 EBP=0018FF28 ESI=0040C701 EDI=0018FE48 EFLAG=00000202
0040C36C	CMP      EBP, EAX                                         EAX=0018FE98 ECX=77AE3804 EDX=00000202 EBX=13A2BE62 ESP=0018FE44 EBP=0018FF28 ESI=0040C701 EDI=0018FE48 EFLAG=00000203
0040C36E	PUSH     DWORD 0xbe8fd443                                 EAX=0018FE98 ECX=77AE3804 EDX=00000202 EBX=13A2BE62 ESP=0018FE44 EBP=0018FF28 ESI=0040C701 EDI=0018FE48 EFLAG=00000206
0040C373	LEA      ESP, [ESP+0x8]                                   EAX=0018FE98 ECX=77AE3804 EDX=00000202 EBX=13A2BE62 ESP=0018FE40 EBP=0018FF28 ESI=0040C701 EDI=0018FE48 EFLAG=00000206
0040C377	JA       0x40befd                                         EAX=0018FE98 ECX=77AE3804 EDX=00000202 EBX=13A2BE62 ESP=0018FE48 EBP=0018FF28 ESI=0040C701 EDI=0018FE48 EFLAG=00000206
0040BEFD	BSWAP    DX                                               EAX=0018FE98 ECX=77AE3804 EDX=00000202 EBX=13A2BE62 ESP=0018FE48 EBP=0018FF28 ESI=0040C701 EDI=0018FE48 EFLAG=00000206
0040BF00	RCL      DL, CL                                           EAX=0018FE98 ECX=77AE3804 EDX=00000000 EBX=13A2BE62 ESP=0018FE48 EBP=0018FF28 ESI=0040C701 EDI=0018FE48 EFLAG=00000206
0040BF02	PUSHA                                                     EAX=0018FE98 ECX=77AE3804 EDX=00000000 EBX=13A2BE62 ESP=0018FE48 EBP=0018FF28 ESI=0040C701 EDI=0018FE48 EFLAG=00000206
0040BF03	AND      EDX, 0xfdc85d80                                  EAX=0018FE98 ECX=77AE3804 EDX=00000000 EBX=13A2BE62 ESP=0018FE28 EBP=0018FF28 ESI=0040C701 EDI=0018FE48 EFLAG=00000206
0040BF09	MOV      AL, [ESI-0x1]                                    EAX=0018FE98 ECX=77AE3804 EDX=00000000 EBX=13A2BE62 ESP=0018FE28 EBP=0018FF28 ESI=0040C701 EDI=0018FE48 EFLAG=00000246
0040BF0C	DEC      DH                                               EAX=0018FE5B ECX=77AE3804 EDX=00000000 EBX=13A2BE62 ESP=0018FE28 EBP=0018FF28 ESI=0040C701 EDI=0018FE48 EFLAG=00000246
0040BF0E	SUB      AL, BL                                           EAX=0018FE5B ECX=77AE3804 EDX=0000FF00 EBX=13A2BE62 ESP=0018FE28 EBP=0018FF28 ESI=0040C701 EDI=0018FE48 EFLAG=00000296
0040BF10	PUSHF                                                     EAX=0018FEF9 ECX=77AE3804 EDX=0000FF00 EBX=13A2BE62 ESP=0018FE28 EBP=0018FF28 ESI=0040C701 EDI=0018FE48 EFLAG=00000287
0040BF11	BTC      DX, 0x4                                          EAX=0018FEF9 ECX=77AE3804 EDX=0000FF00 EBX=13A2BE62 ESP=0018FE24 EBP=0018FF28 ESI=0040C701 EDI=0018FE48 EFLAG=00000287
0040BF16	PUSH     ESP                                              EAX=0018FEF9 ECX=77AE3804 EDX=0000FF10 EBX=13A2BE62 ESP=0018FE24 EBP=0018FF28 ESI=0040C701 EDI=0018FE48 EFLAG=00000286
0040BF17	MOVZX    DX, AL                                           EAX=0018FEF9 ECX=77AE3804 EDX=0000FF10 EBX=13A2BE62 ESP=0018FE20 EBP=0018FF28 ESI=0040C701 EDI=0018FE48 EFLAG=00000286
0040BF1B	ROR      AL, 0x7                                          EAX=0018FEF9 ECX=77AE3804 EDX=000000F9 EBX=13A2BE62 ESP=0018FE20 EBP=0018FF28 ESI=0040C701 EDI=0018FE48 EFLAG=00000286
0040BF1E	ROL      DH, 0x3                                          EAX=0018FEF3 ECX=77AE3804 EDX=000000F9 EBX=13A2BE62 ESP=0018FE20 EBP=0018FF28 ESI=0040C701 EDI=0018FE48 EFLAG=00000287
0040BF21	SUB      AL, 0x30                                         EAX=0018FEF3 ECX=77AE3804 EDX=000000F9 EBX=13A2BE62 ESP=0018FE20 EBP=0018FF28 ESI=0040C701 EDI=0018FE48 EFLAG=00000286
0040BF23	SHR      DX, 0x9                                          EAX=0018FEC3 ECX=77AE3804 EDX=000000F9 EBX=13A2BE62 ESP=0018FE20 EBP=0018FF28 ESI=0040C701 EDI=0018FE48 EFLAG=00000286
0040BF27	XOR      AL, 0xce                                         EAX=0018FEC3 ECX=77AE3804 EDX=00000000 EBX=13A2BE62 ESP=0018FE20 EBP=0018FF28 ESI=0040C701 EDI=0018FE48 EFLAG=00000246
0040BF29	ADC      DL, 0xdb                                         EAX=0018FE0D ECX=77AE3804 EDX=00000000 EBX=13A2BE62 ESP=0018FE20 EBP=0018FF28 ESI=0040C701 EDI=0018FE48 EFLAG=00000202
0040BF2C	BT       EBX, EDI                                         EAX=0018FE0D ECX=77AE3804 EDX=000000DB EBX=13A2BE62 ESP=0018FE20 EBP=0018FF28 ESI=0040C701 EDI=0018FE48 EFLAG=00000286
0040BF2F	SETL     DH                                               EAX=0018FE0D ECX=77AE3804 EDX=000000DB EBX=13A2BE62 ESP=0018FE20 EBP=0018FF28 ESI=0040C701 EDI=0018FE48 EFLAG=00000286
0040BF32	SUB      BL, AL                                           EAX=0018FE0D ECX=77AE3804 EDX=000001DB EBX=13A2BE62 ESP=0018FE20 EBP=0018FF28 ESI=0040C701 EDI=0018FE48 EFLAG=00000286
0040BF34	STC                                                       EAX=0018FE0D ECX=77AE3804 EDX=000001DB EBX=13A2BE55 ESP=0018FE20 EBP=0018FF28 ESI=0040C701 EDI=0018FE48 EFLAG=00000216
0040BF35	MOVZX    EAX, AL                                          EAX=0018FE0D ECX=77AE3804 EDX=000001DB EBX=13A2BE55 ESP=0018FE20 EBP=0018FF28 ESI=0040C701 EDI=0018FE48 EFLAG=00000217
0040BF38	NOT      EDX                                              EAX=0000000D ECX=77AE3804 EDX=000001DB EBX=13A2BE55 ESP=0018FE20 EBP=0018FF28 ESI=0040C701 EDI=0018FE48 EFLAG=00000217
0040BF3A	BSF      EDX, EDI                                         EAX=0000000D ECX=77AE3804 EDX=FFFFFE24 EBX=13A2BE55 ESP=0018FE20 EBP=0018FF28 ESI=0040C701 EDI=0018FE48 EFLAG=00000217
0040BF3E	CMC                                                       EAX=0000000D ECX=77AE3804 EDX=FFFF0003 EBX=13A2BE55 ESP=0018FE20 EBP=0018FF28 ESI=0040C701 EDI=0018FE48 EFLAG=00000206
0040BF3F	SAL      DH, CL                                           EAX=0000000D ECX=77AE3804 EDX=FFFF0003 EBX=13A2BE55 ESP=0018FE20 EBP=0018FF28 ESI=0040C701 EDI=0018FE48 EFLAG=00000207
0040BF41	MOV      EDX, [EAX*4+0x40a51f]                            EAX=0000000D ECX=77AE3804 EDX=FFFF0003 EBX=13A2BE55 ESP=0018FE20 EBP=0018FF28 ESI=0040C701 EDI=0018FE48 EFLAG=00000246
0040BF48	TEST     EDX, 0xe75c2a09                                  EAX=0000000D ECX=77AE3804 EDX=2BFA5C21 EBX=13A2BE55 ESP=0018FE20 EBP=0018FF28 ESI=0040C701 EDI=0018FE48 EFLAG=00000246
0040BF4E	TEST     BL, DL                                           EAX=0000000D ECX=77AE3804 EDX=2BFA5C21 EBX=13A2BE55 ESP=0018FE20 EBP=0018FF28 ESI=0040C701 EDI=0018FE48 EFLAG=00000202
0040BF50	SUB      EDX, 0x2bb9b71b                                  EAX=0000000D ECX=77AE3804 EDX=2BFA5C21 EBX=13A2BE55 ESP=0018FE20 EBP=0018FF28 ESI=0040C701 EDI=0018FE48 EFLAG=00000202
0040BF56	CALL     0x40bd78                                         EAX=0000000D ECX=77AE3804 EDX=0040A506 EBX=13A2BE55 ESP=0018FE20 EBP=0018FF28 ESI=0040C701 EDI=0018FE48 EFLAG=00000216
0040BD78	PUSH     EDX                                              EAX=0000000D ECX=77AE3804 EDX=0040A506 EBX=13A2BE55 ESP=0018FE1C EBP=0018FF28 ESI=0040C701 EDI=0018FE48 EFLAG=00000216
0040BD79	DEC      ESI                                              EAX=0000000D ECX=77AE3804 EDX=0040A506 EBX=13A2BE55 ESP=0018FE18 EBP=0018FF28 ESI=0040C701 EDI=0018FE48 EFLAG=00000216
0040BD7A	PUSHF                                                     EAX=0000000D ECX=77AE3804 EDX=0040A506 EBX=13A2BE55 ESP=0018FE18 EBP=0018FF28 ESI=0040C700 EDI=0018FE48 EFLAG=00000206
0040A91F	MOV      [ESP], DH                                        EAX=0000000D ECX=77AE3804 EDX=0040A506 EBX=13A2BE55 ESP=0018FE14 EBP=0018FF28 ESI=0040C700 EDI=0018FE48 EFLAG=00000206
0040A922	MOV      [ESP+0x30], EDX                                  EAX=0000000D ECX=77AE3804 EDX=0040A506 EBX=13A2BE55 ESP=0018FE14 EBP=0018FF28 ESI=0040C700 EDI=0018FE48 EFLAG=00000206
0040A926	MOV      [ESP], AL                                        EAX=0000000D ECX=77AE3804 EDX=0040A506 EBX=13A2BE55 ESP=0018FE14 EBP=0018FF28 ESI=0040C700 EDI=0018FE48 EFLAG=00000206
0040A929	PUSH     DWORD [ESP+0x30]                                 EAX=0000000D ECX=77AE3804 EDX=0040A506 EBX=13A2BE55 ESP=0018FE14 EBP=0018FF28 ESI=0040C700 EDI=0018FE48 EFLAG=00000206
0040A92D	RET      0x34                                             EAX=0000000D ECX=77AE3804 EDX=0040A506 EBX=13A2BE55 ESP=0018FE10 EBP=0018FF28 ESI=0040C700 EDI=0018FE48 EFLAG=00000206
0040A506	XOR      AH, CH                                           EAX=0000000D ECX=77AE3804 EDX=0040A506 EBX=13A2BE55 ESP=0018FE48 EBP=0018FF28 ESI=0040C700 EDI=0018FE48 EFLAG=00000206
0040A508	MOV      EAX, EBP                                         EAX=0000380D ECX=77AE3804 EDX=0040A506 EBX=13A2BE55 ESP=0018FE48 EBP=0018FF28 ESI=0040C700 EDI=0018FE48 EFLAG=00000202
0040A50A	PUSHF                                                     EAX=0018FF28 ECX=77AE3804 EDX=0040A506 EBX=13A2BE55 ESP=0018FE48 EBP=0018FF28 ESI=0040C700 EDI=0018FE48 EFLAG=00000202
0040A50B	MOV      BYTE [ESP], 0x42                                 EAX=0018FF28 ECX=77AE3804 EDX=0040A506 EBX=13A2BE55 ESP=0018FE44 EBP=0018FF28 ESI=0040C700 EDI=0018FE48 EFLAG=00000202
0040A50F	CMC                                                       EAX=0018FF28 ECX=77AE3804 EDX=0040A506 EBX=13A2BE55 ESP=0018FE44 EBP=0018FF28 ESI=0040C700 EDI=0018FE48 EFLAG=00000202
0040A510	CALL     0x40bbe7                                         EAX=0018FF28 ECX=77AE3804 EDX=0040A506 EBX=13A2BE55 ESP=0018FE44 EBP=0018FF28 ESI=0040C700 EDI=0018FE48 EFLAG=00000203
0040BBE7	SUB      EBP, 0x4                                         EAX=0018FF28 ECX=77AE3804 EDX=0040A506 EBX=13A2BE55 ESP=0018FE40 EBP=0018FF28 ESI=0040C700 EDI=0018FE48 EFLAG=00000203
0040BBEA	PUSH     EDX                                              EAX=0018FF28 ECX=77AE3804 EDX=0040A506 EBX=13A2BE55 ESP=0018FE40 EBP=0018FF24 ESI=0040C700 EDI=0018FE48 EFLAG=00000206
0040BBEB	MOV      [EBP+0x0], EAX                                   EAX=0018FF28 ECX=77AE3804 EDX=0040A506 EBX=13A2BE55 ESP=0018FE3C EBP=0018FF24 ESI=0040C700 EDI=0018FE48 EFLAG=00000206
0040BBEE	PUSHF                                                     EAX=0018FF28 ECX=77AE3804 EDX=0040A506 EBX=13A2BE55 ESP=0018FE3C EBP=0018FF24 ESI=0040C700 EDI=0018FE48 EFLAG=00000206
0040BBEF	PUSH     DWORD [ESP+0x4]                                  EAX=0018FF28 ECX=77AE3804 EDX=0040A506 EBX=13A2BE55 ESP=0018FE38 EBP=0018FF24 ESI=0040C700 EDI=0018FE48 EFLAG=00000206
0040BBF3	PUSHA                                                     EAX=0018FF28 ECX=77AE3804 EDX=0040A506 EBX=13A2BE55 ESP=0018FE34 EBP=0018FF24 ESI=0040C700 EDI=0018FE48 EFLAG=00000206
0040BBF4	LEA      ESP, [ESP+0x34]                                  EAX=0018FF28 ECX=77AE3804 EDX=0040A506 EBX=13A2BE55 ESP=0018FE14 EBP=0018FF24 ESI=0040C700 EDI=0018FE48 EFLAG=00000206
0040C360	TEST     DH, 0x76                                         EAX=0018FF28 ECX=77AE3804 EDX=0040A506 EBX=13A2BE55 ESP=0018FE48 EBP=0018FF24 ESI=0040C700 EDI=0018FE48 EFLAG=00000206
0040C363	LEA      EAX, [EDI+0x50]                                  EAX=0018FF28 ECX=77AE3804 EDX=0040A506 EBX=13A2BE55 ESP=0018FE48 EBP=0018FF24 ESI=0040C700 EDI=0018FE48 EFLAG=00000206
0040C366	PUSH     DWORD 0xa76b4735                                 EAX=0018FE98 ECX=77AE3804 EDX=0040A506 EBX=13A2BE55 ESP=0018FE48 EBP=0018FF24 ESI=0040C700 EDI=0018FE48 EFLAG=00000206
0040C36B	STC                                                       EAX=0018FE98 ECX=77AE3804 EDX=0040A506 EBX=13A2BE55 ESP=0018FE44 EBP=0018FF24 ESI=0040C700 EDI=0018FE48 EFLAG=00000206
0040C36C	CMP      EBP, EAX                                         EAX=0018FE98 ECX=77AE3804 EDX=0040A506 EBX=13A2BE55 ESP=0018FE44 EBP=0018FF24 ESI=0040C700 EDI=0018FE48 EFLAG=00000207
0040C36E	PUSH     DWORD 0xbe8fd443                                 EAX=0018FE98 ECX=77AE3804 EDX=0040A506 EBX=13A2BE55 ESP=0018FE44 EBP=0018FF24 ESI=0040C700 EDI=0018FE48 EFLAG=00000212
0040C373	LEA      ESP, [ESP+0x8]                                   EAX=0018FE98 ECX=77AE3804 EDX=0040A506 EBX=13A2BE55 ESP=0018FE40 EBP=0018FF24 ESI=0040C700 EDI=0018FE48 EFLAG=00000212
0040C377	JA       0x40befd                                         EAX=0018FE98 ECX=77AE3804 EDX=0040A506 EBX=13A2BE55 ESP=0018FE48 EBP=0018FF24 ESI=0040C700 EDI=0018FE48 EFLAG=00000212
0040BEFD	BSWAP    DX                                               EAX=0018FE98 ECX=77AE3804 EDX=0040A506 EBX=13A2BE55 ESP=0018FE48 EBP=0018FF24 ESI=0040C700 EDI=0018FE48 EFLAG=00000212
0040BF00	RCL      DL, CL                                           EAX=0018FE98 ECX=77AE3804 EDX=00400000 EBX=13A2BE55 ESP=0018FE48 EBP=0018FF24 ESI=0040C700 EDI=0018FE48 EFLAG=00000212
0040BF02	PUSHA                                                     EAX=0018FE98 ECX=77AE3804 EDX=00400000 EBX=13A2BE55 ESP=0018FE48 EBP=0018FF24 ESI=0040C700 EDI=0018FE48 EFLAG=00000212
0040BF03	AND      EDX, 0xfdc85d80                                  EAX=0018FE98 ECX=77AE3804 EDX=00400000 EBX=13A2BE55 ESP=0018FE28 EBP=0018FF24 ESI=0040C700 EDI=0018FE48 EFLAG=00000212
0040BF09	MOV      AL, [ESI-0x1]                                    EAX=0018FE98 ECX=77AE3804 EDX=00400000 EBX=13A2BE55 ESP=0018FE28 EBP=0018FF24 ESI=0040C700 EDI=0018FE48 EFLAG=00000206
0040BF0C	DEC      DH                                               EAX=0018FEE0 ECX=77AE3804 EDX=00400000 EBX=13A2BE55 ESP=0018FE28 EBP=0018FF24 ESI=0040C700 EDI=0018FE48 EFLAG=00000206
0040BF0E	SUB      AL, BL                                           EAX=0018FEE0 ECX=77AE3804 EDX=0040FF00 EBX=13A2BE55 ESP=0018FE28 EBP=0018FF24 ESI=0040C700 EDI=0018FE48 EFLAG=00000296
0040BF10	PUSHF                                                     EAX=0018FE8B ECX=77AE3804 EDX=0040FF00 EBX=13A2BE55 ESP=0018FE28 EBP=0018FF24 ESI=0040C700 EDI=0018FE48 EFLAG=00000296
0040BF11	BTC      DX, 0x4                                          EAX=0018FE8B ECX=77AE3804 EDX=0040FF00 EBX=13A2BE55 ESP=0018FE24 EBP=0018FF24 ESI=0040C700 EDI=0018FE48 EFLAG=00000296
0040BF16	PUSH     ESP                                              EAX=0018FE8B ECX=77AE3804 EDX=0040FF10 EBX=13A2BE55 ESP=0018FE24 EBP=0018FF24 ESI=0040C700 EDI=0018FE48 EFLAG=00000296
0040BF17	MOVZX    DX, AL                                           EAX=0018FE8B ECX=77AE3804 EDX=0040FF10 EBX=13A2BE55 ESP=0018FE20 EBP=0018FF24 ESI=0040C700 EDI=0018FE48 EFLAG=00000296
0040BF1B	ROR      AL, 0x7                                          EAX=0018FE8B ECX=77AE3804 EDX=0040008B EBX=13A2BE55 ESP=0018FE20 EBP=0018FF24 ESI=0040C700 EDI=0018FE48 EFLAG=00000296
0040BF1E	ROL      DH, 0x3                                          EAX=0018FE17 ECX=77AE3804 EDX=0040008B EBX=13A2BE55 ESP=0018FE20 EBP=0018FF24 ESI=0040C700 EDI=0018FE48 EFLAG=00000296
0040BF21	SUB      AL, 0x30                                         EAX=0018FE17 ECX=77AE3804 EDX=0040008B EBX=13A2BE55 ESP=0018FE20 EBP=0018FF24 ESI=0040C700 EDI=0018FE48 EFLAG=00000296
0040BF23	SHR      DX, 0x9                                          EAX=0018FEE7 ECX=77AE3804 EDX=0040008B EBX=13A2BE55 ESP=0018FE20 EBP=0018FF24 ESI=0040C700 EDI=0018FE48 EFLAG=00000287
0040BF27	XOR      AL, 0xce                                         EAX=0018FEE7 ECX=77AE3804 EDX=00400000 EBX=13A2BE55 ESP=0018FE20 EBP=0018FF24 ESI=0040C700 EDI=0018FE48 EFLAG=00000246
0040BF29	ADC      DL, 0xdb                                         EAX=0018FE29 ECX=77AE3804 EDX=00400000 EBX=13A2BE55 ESP=0018FE20 EBP=0018FF24 ESI=0040C700 EDI=0018FE48 EFLAG=00000202
0040BF2C	BT       EBX, EDI                                         EAX=0018FE29 ECX=77AE3804 EDX=004000DB EBX=13A2BE55 ESP=0018FE20 EBP=0018FF24 ESI=0040C700 EDI=0018FE48 EFLAG=00000286
0040BF2F	SETL     DH                                               EAX=0018FE29 ECX=77AE3804 EDX=004000DB EBX=13A2BE55 ESP=0018FE20 EBP=0018FF24 ESI=0040C700 EDI=0018FE48 EFLAG=00000286
0040BF32	SUB      BL, AL                                           EAX=0018FE29 ECX=77AE3804 EDX=004001DB EBX=13A2BE55 ESP=0018FE20 EBP=0018FF24 ESI=0040C700 EDI=0018FE48 EFLAG=00000286
0040BF34	STC                                                       EAX=0018FE29 ECX=77AE3804 EDX=004001DB EBX=13A2BE2C ESP=0018FE20 EBP=0018FF24 ESI=0040C700 EDI=0018FE48 EFLAG=00000212
0040BF35	MOVZX    EAX, AL                                          EAX=0018FE29 ECX=77AE3804 EDX=004001DB EBX=13A2BE2C ESP=0018FE20 EBP=0018FF24 ESI=0040C700 EDI=0018FE48 EFLAG=00000213
0040BF38	NOT      EDX                                              EAX=00000029 ECX=77AE3804 EDX=004001DB EBX=13A2BE2C ESP=0018FE20 EBP=0018FF24 ESI=0040C700 EDI=0018FE48 EFLAG=00000213
0040BF3A	BSF      EDX, EDI                                         EAX=00000029 ECX=77AE3804 EDX=FFBFFE24 EBX=13A2BE2C ESP=0018FE20 EBP=0018FF24 ESI=0040C700 EDI=0018FE48 EFLAG=00000213
0040BF3E	CMC                                                       EAX=00000029 ECX=77AE3804 EDX=FFBF0003 EBX=13A2BE2C ESP=0018FE20 EBP=0018FF24 ESI=0040C700 EDI=0018FE48 EFLAG=00000206
0040BF3F	SAL      DH, CL                                           EAX=00000029 ECX=77AE3804 EDX=FFBF0003 EBX=13A2BE2C ESP=0018FE20 EBP=0018FF24 ESI=0040C700 EDI=0018FE48 EFLAG=00000207
0040BF41	MOV      EDX, [EAX*4+0x40a51f]                            EAX=00000029 ECX=77AE3804 EDX=FFBF0003 EBX=13A2BE2C ESP=0018FE20 EBP=0018FF24 ESI=0040C700 EDI=0018FE48 EFLAG=00000246
0040BF48	TEST     EDX, 0xe75c2a09                                  EAX=00000029 ECX=77AE3804 EDX=2BFA6B9E EBX=13A2BE2C ESP=0018FE20 EBP=0018FF24 ESI=0040C700 EDI=0018FE48 EFLAG=00000246
0040BF4E	TEST     BL, DL                                           EAX=00000029 ECX=77AE3804 EDX=2BFA6B9E EBX=13A2BE2C ESP=0018FE20 EBP=0018FF24 ESI=0040C700 EDI=0018FE48 EFLAG=00000202
0040BF50	SUB      EDX, 0x2bb9b71b                                  EAX=00000029 ECX=77AE3804 EDX=2BFA6B9E EBX=13A2BE2C ESP=0018FE20 EBP=0018FF24 ESI=0040C700 EDI=0018FE48 EFLAG=00000206
0040BF56	CALL     0x40bd78                                         EAX=00000029 ECX=77AE3804 EDX=0040B483 EBX=13A2BE2C ESP=0018FE20 EBP=0018FF24 ESI=0040C700 EDI=0018FE48 EFLAG=00000202
0040BD78	PUSH     EDX                                              EAX=00000029 ECX=77AE3804 EDX=0040B483 EBX=13A2BE2C ESP=0018FE1C EBP=0018FF24 ESI=0040C700 EDI=0018FE48 EFLAG=00000202
0040BD79	DEC      ESI                                              EAX=00000029 ECX=77AE3804 EDX=0040B483 EBX=13A2BE2C ESP=0018FE18 EBP=0018FF24 ESI=0040C700 EDI=0018FE48 EFLAG=00000202
0040BD7A	PUSHF                                                     EAX=00000029 ECX=77AE3804 EDX=0040B483 EBX=13A2BE2C ESP=0018FE18 EBP=0018FF24 ESI=0040C6FF EDI=0018FE48 EFLAG=00000216
0040A91F	MOV      [ESP], DH                                        EAX=00000029 ECX=77AE3804 EDX=0040B483 EBX=13A2BE2C ESP=0018FE14 EBP=0018FF24 ESI=0040C6FF EDI=0018FE48 EFLAG=00000216
0040A922	MOV      [ESP+0x30], EDX                                  EAX=00000029 ECX=77AE3804 EDX=0040B483 EBX=13A2BE2C ESP=0018FE14 EBP=0018FF24 ESI=0040C6FF EDI=0018FE48 EFLAG=00000216
0040A926	MOV      [ESP], AL                                        EAX=00000029 ECX=77AE3804 EDX=0040B483 EBX=13A2BE2C ESP=0018FE14 EBP=0018FF24 ESI=0040C6FF EDI=0018FE48 EFLAG=00000216
0040A929	PUSH     DWORD [ESP+0x30]                                 EAX=00000029 ECX=77AE3804 EDX=0040B483 EBX=13A2BE2C ESP=0018FE14 EBP=0018FF24 ESI=0040C6FF EDI=0018FE48 EFLAG=00000216
0040A92D	RET      0x34                                             EAX=00000029 ECX=77AE3804 EDX=0040B483 EBX=13A2BE2C ESP=0018FE10 EBP=0018FF24 ESI=0040C6FF EDI=0018FE48 EFLAG=00000216
0040B483	SETGE    AH                                               EAX=00000029 ECX=77AE3804 EDX=0040B483 EBX=13A2BE2C ESP=0018FE48 EBP=0018FF24 ESI=0040C6FF EDI=0018FE48 EFLAG=00000216
0040B486	LAHF                                                      EAX=00000129 ECX=77AE3804 EDX=0040B483 EBX=13A2BE2C ESP=0018FE48 EBP=0018FF24 ESI=0040C6FF EDI=0018FE48 EFLAG=00000216
0040B487	MOV      EAX, [EBP+0x0]                                   EAX=00001629 ECX=77AE3804 EDX=0040B483 EBX=13A2BE2C ESP=0018FE48 EBP=0018FF24 ESI=0040C6FF EDI=0018FE48 EFLAG=00000216
0040B209	PUSH     EDX                                              EAX=0018FF28 ECX=77AE3804 EDX=0040B483 EBX=13A2BE2C ESP=0018FE48 EBP=0018FF24 ESI=0040C6FF EDI=0018FE48 EFLAG=00000216
0040B20A	MOV      EAX, [SS:EAX]                                    EAX=0018FF28 ECX=77AE3804 EDX=0040B483 EBX=13A2BE2C ESP=0018FE44 EBP=0018FF24 ESI=0040C6FF EDI=0018FE48 EFLAG=00000216
0040B20D	MOV      WORD [ESP], 0x7e59                               EAX=00000202 ECX=77AE3804 EDX=0040B483 EBX=13A2BE2C ESP=0018FE44 EBP=0018FF24 ESI=0040C6FF EDI=0018FE48 EFLAG=00000216
0040B30B	MOV      [EBP+0x0], EAX                                   EAX=00000202 ECX=77AE3804 EDX=0040B483 EBX=13A2BE2C ESP=0018FE44 EBP=0018FF24 ESI=0040C6FF EDI=0018FE48 EFLAG=00000216
0040B30E	PUSH     ESP                                              EAX=00000202 ECX=77AE3804 EDX=0040B483 EBX=13A2BE2C ESP=0018FE44 EBP=0018FF24 ESI=0040C6FF EDI=0018FE48 EFLAG=00000216
0040B30F	LEA      ESP, [ESP+0x8]                                   EAX=00000202 ECX=77AE3804 EDX=0040B483 EBX=13A2BE2C ESP=0018FE40 EBP=0018FF24 ESI=0040C6FF EDI=0018FE48 EFLAG=00000216
0040BEFD	BSWAP    DX                                               EAX=00000202 ECX=77AE3804 EDX=0040B483 EBX=13A2BE2C ESP=0018FE48 EBP=0018FF24 ESI=0040C6FF EDI=0018FE48 EFLAG=00000216
0040BF00	RCL      DL, CL                                           EAX=00000202 ECX=77AE3804 EDX=00400000 EBX=13A2BE2C ESP=0018FE48 EBP=0018FF24 ESI=0040C6FF EDI=0018FE48 EFLAG=00000216
0040BF02	PUSHA                                                     EAX=00000202 ECX=77AE3804 EDX=00400000 EBX=13A2BE2C ESP=0018FE48 EBP=0018FF24 ESI=0040C6FF EDI=0018FE48 EFLAG=00000216
0040BF03	AND      EDX, 0xfdc85d80                                  EAX=00000202 ECX=77AE3804 EDX=00400000 EBX=13A2BE2C ESP=0018FE28 EBP=0018FF24 ESI=0040C6FF EDI=0018FE48 EFLAG=00000216
0040BF09	MOV      AL, [ESI-0x1]                                    EAX=00000202 ECX=77AE3804 EDX=00400000 EBX=13A2BE2C ESP=0018FE28 EBP=0018FF24 ESI=0040C6FF EDI=0018FE48 EFLAG=00000206
0040BF0C	DEC      DH                                               EAX=0000028A ECX=77AE3804 EDX=00400000 EBX=13A2BE2C ESP=0018FE28 EBP=0018FF24 ESI=0040C6FF EDI=0018FE48 EFLAG=00000206
0040BF0E	SUB      AL, BL                                           EAX=0000028A ECX=77AE3804 EDX=0040FF00 EBX=13A2BE2C ESP=0018FE28 EBP=0018FF24 ESI=0040C6FF EDI=0018FE48 EFLAG=00000296
0040BF10	PUSHF                                                     EAX=0000025E ECX=77AE3804 EDX=0040FF00 EBX=13A2BE2C ESP=0018FE28 EBP=0018FF24 ESI=0040C6FF EDI=0018FE48 EFLAG=00000A12
0040BF11	BTC      DX, 0x4                                          EAX=0000025E ECX=77AE3804 EDX=0040FF00 EBX=13A2BE2C ESP=0018FE24 EBP=0018FF24 ESI=0040C6FF EDI=0018FE48 EFLAG=00000A12
0040BF16	PUSH     ESP                                              EAX=0000025E ECX=77AE3804 EDX=0040FF10 EBX=13A2BE2C ESP=0018FE24 EBP=0018FF24 ESI=0040C6FF EDI=0018FE48 EFLAG=00000A12
0040BF17	MOVZX    DX, AL                                           EAX=0000025E ECX=77AE3804 EDX=0040FF10 EBX=13A2BE2C ESP=0018FE20 EBP=0018FF24 ESI=0040C6FF EDI=0018FE48 EFLAG=00000A12
0040BF1B	ROR      AL, 0x7                                          EAX=0000025E ECX=77AE3804 EDX=0040005E EBX=13A2BE2C ESP=0018FE20 EBP=0018FF24 ESI=0040C6FF EDI=0018FE48 EFLAG=00000A12
0040BF1E	ROL      DH, 0x3                                          EAX=000002BC ECX=77AE3804 EDX=0040005E EBX=13A2BE2C ESP=0018FE20 EBP=0018FF24 ESI=0040C6FF EDI=0018FE48 EFLAG=00000A13
0040BF21	SUB      AL, 0x30                                         EAX=000002BC ECX=77AE3804 EDX=0040005E EBX=13A2BE2C ESP=0018FE20 EBP=0018FF24 ESI=0040C6FF EDI=0018FE48 EFLAG=00000212
0040BF23	SHR      DX, 0x9                                          EAX=0000028C ECX=77AE3804 EDX=0040005E EBX=13A2BE2C ESP=0018FE20 EBP=0018FF24 ESI=0040C6FF EDI=0018FE48 EFLAG=00000282
0040BF27	XOR      AL, 0xce                                         EAX=0000028C ECX=77AE3804 EDX=00400000 EBX=13A2BE2C ESP=0018FE20 EBP=0018FF24 ESI=0040C6FF EDI=0018FE48 EFLAG=00000246
0040BF29	ADC      DL, 0xdb                                         EAX=00000242 ECX=77AE3804 EDX=00400000 EBX=13A2BE2C ESP=0018FE20 EBP=0018FF24 ESI=0040C6FF EDI=0018FE48 EFLAG=00000206
0040BF2C	BT       EBX, EDI                                         EAX=00000242 ECX=77AE3804 EDX=004000DB EBX=13A2BE2C ESP=0018FE20 EBP=0018FF24 ESI=0040C6FF EDI=0018FE48 EFLAG=00000286
0040BF2F	SETL     DH                                               EAX=00000242 ECX=77AE3804 EDX=004000DB EBX=13A2BE2C ESP=0018FE20 EBP=0018FF24 ESI=0040C6FF EDI=0018FE48 EFLAG=00000286
0040BF32	SUB      BL, AL                                           EAX=00000242 ECX=77AE3804 EDX=004001DB EBX=13A2BE2C ESP=0018FE20 EBP=0018FF24 ESI=0040C6FF EDI=0018FE48 EFLAG=00000286
0040BF34	STC                                                       EAX=00000242 ECX=77AE3804 EDX=004001DB EBX=13A2BEEA ESP=0018FE20 EBP=0018FF24 ESI=0040C6FF EDI=0018FE48 EFLAG=00000283
0040BF35	MOVZX    EAX, AL                                          EAX=00000242 ECX=77AE3804 EDX=004001DB EBX=13A2BEEA ESP=0018FE20 EBP=0018FF24 ESI=0040C6FF EDI=0018FE48 EFLAG=00000283
0040BF38	NOT      EDX                                              EAX=00000042 ECX=77AE3804 EDX=004001DB EBX=13A2BEEA ESP=0018FE20 EBP=0018FF24 ESI=0040C6FF EDI=0018FE48 EFLAG=00000283
0040BF3A	BSF      EDX, EDI                                         EAX=00000042 ECX=77AE3804 EDX=FFBFFE24 EBX=13A2BEEA ESP=0018FE20 EBP=0018FF24 ESI=0040C6FF EDI=0018FE48 EFLAG=00000283
0040BF3E	CMC                                                       EAX=00000042 ECX=77AE3804 EDX=FFBF0003 EBX=13A2BEEA ESP=0018FE20 EBP=0018FF24 ESI=0040C6FF EDI=0018FE48 EFLAG=00000206
0040BF3F	SAL      DH, CL                                           EAX=00000042 ECX=77AE3804 EDX=FFBF0003 EBX=13A2BEEA ESP=0018FE20 EBP=0018FF24 ESI=0040C6FF EDI=0018FE48 EFLAG=00000207
0040BF41	MOV      EDX, [EAX*4+0x40a51f]                            EAX=00000042 ECX=77AE3804 EDX=FFBF0003 EBX=13A2BEEA ESP=0018FE20 EBP=0018FF24 ESI=0040C6FF EDI=0018FE48 EFLAG=00000246
0040BF48	TEST     EDX, 0xe75c2a09                                  EAX=00000042 ECX=77AE3804 EDX=2BFA64BF EBX=13A2BEEA ESP=0018FE20 EBP=0018FF24 ESI=0040C6FF EDI=0018FE48 EFLAG=00000246
0040BF4E	TEST     BL, DL                                           EAX=00000042 ECX=77AE3804 EDX=2BFA64BF EBX=13A2BEEA ESP=0018FE20 EBP=0018FF24 ESI=0040C6FF EDI=0018FE48 EFLAG=00000206
0040BF50	SUB      EDX, 0x2bb9b71b                                  EAX=00000042 ECX=77AE3804 EDX=2BFA64BF EBX=13A2BEEA ESP=0018FE20 EBP=0018FF24 ESI=0040C6FF EDI=0018FE48 EFLAG=00000286
0040BF56	CALL     0x40bd78                                         EAX=00000042 ECX=77AE3804 EDX=0040ADA4 EBX=13A2BEEA ESP=0018FE20 EBP=0018FF24 ESI=0040C6FF EDI=0018FE48 EFLAG=00000202
0040BD78	PUSH     EDX                                              EAX=00000042 ECX=77AE3804 EDX=0040ADA4 EBX=13A2BEEA ESP=0018FE1C EBP=0018FF24 ESI=0040C6FF EDI=0018FE48 EFLAG=00000202
0040BD79	DEC      ESI                                              EAX=00000042 ECX=77AE3804 EDX=0040ADA4 EBX=13A2BEEA ESP=0018FE18 EBP=0018FF24 ESI=0040C6FF EDI=0018FE48 EFLAG=00000202
0040BD7A	PUSHF                                                     EAX=00000042 ECX=77AE3804 EDX=0040ADA4 EBX=13A2BEEA ESP=0018FE18 EBP=0018FF24 ESI=0040C6FE EDI=0018FE48 EFLAG=00000202
0040A91F	MOV      [ESP], DH                                        EAX=00000042 ECX=77AE3804 EDX=0040ADA4 EBX=13A2BEEA ESP=0018FE14 EBP=0018FF24 ESI=0040C6FE EDI=0018FE48 EFLAG=00000202
0040A922	MOV      [ESP+0x30], EDX                                  EAX=00000042 ECX=77AE3804 EDX=0040ADA4 EBX=13A2BEEA ESP=0018FE14 EBP=0018FF24 ESI=0040C6FE EDI=0018FE48 EFLAG=00000202
0040A926	MOV      [ESP], AL                                        EAX=00000042 ECX=77AE3804 EDX=0040ADA4 EBX=13A2BEEA ESP=0018FE14 EBP=0018FF24 ESI=0040C6FE EDI=0018FE48 EFLAG=00000202
0040A929	PUSH     DWORD [ESP+0x30]                                 EAX=00000042 ECX=77AE3804 EDX=0040ADA4 EBX=13A2BEEA ESP=0018FE14 EBP=0018FF24 ESI=0040C6FE EDI=0018FE48 EFLAG=00000202
0040A92D	RET      0x34                                             EAX=00000042 ECX=77AE3804 EDX=0040ADA4 EBX=13A2BEEA ESP=0018FE10 EBP=0018FF24 ESI=0040C6FE EDI=0018FE48 EFLAG=00000202
0040ADA4	PUSHF                                                     EAX=00000042 ECX=77AE3804 EDX=0040ADA4 EBX=13A2BEEA ESP=0018FE48 EBP=0018FF24 ESI=0040C6FE EDI=0018FE48 EFLAG=00000202
0040ADA5	XADD     DX, AX                                           EAX=00000042 ECX=77AE3804 EDX=0040ADA4 EBX=13A2BEEA ESP=0018FE44 EBP=0018FF24 ESI=0040C6FE EDI=0018FE48 EFLAG=00000202
0040ADA9	BTS      EDX, 0x1                                         EAX=0000ADA4 ECX=77AE3804 EDX=0040ADE6 EBX=13A2BEEA ESP=0018FE44 EBP=0018FF24 ESI=0040C6FE EDI=0018FE48 EFLAG=00000282
0040ADAD	MOV      EAX, [EBP+0x0]                                   EAX=0000ADA4 ECX=77AE3804 EDX=0040ADE6 EBX=13A2BEEA ESP=0018FE44 EBP=0018FF24 ESI=0040C6FE EDI=0018FE48 EFLAG=00000283
0040ADB0	DEC      DL                                               EAX=00000202 ECX=77AE3804 EDX=0040ADE6 EBX=13A2BEEA ESP=0018FE44 EBP=0018FF24 ESI=0040C6FE EDI=0018FE48 EFLAG=00000283
0040C14D	PUSHA                                                     EAX=00000202 ECX=77AE3804 EDX=0040ADE5 EBX=13A2BEEA ESP=0018FE44 EBP=0018FF24 ESI=0040C6FE EDI=0018FE48 EFLAG=00000283
0040C14E	MOV      EDX, [EBP+0x4]                                   EAX=00000202 ECX=77AE3804 EDX=0040ADE5 EBX=13A2BEEA ESP=0018FE24 EBP=0018FF24 ESI=0040C6FE EDI=0018FE48 EFLAG=00000283
0040C151	CALL     0x40a9f9                                         EAX=00000202 ECX=77AE3804 EDX=00000202 EBX=13A2BEEA ESP=0018FE24 EBP=0018FF24 ESI=0040C6FE EDI=0018FE48 EFLAG=00000283
0040A9F9	NOT      EAX                                              EAX=00000202 ECX=77AE3804 EDX=00000202 EBX=13A2BEEA ESP=0018FE20 EBP=0018FF24 ESI=0040C6FE EDI=0018FE48 EFLAG=00000283
0040A9FB	CMC                                                       EAX=FFFFFDFD ECX=77AE3804 EDX=00000202 EBX=13A2BEEA ESP=0018FE20 EBP=0018FF24 ESI=0040C6FE EDI=0018FE48 EFLAG=00000283
0040A9FC	PUSH     ECX                                              EAX=FFFFFDFD ECX=77AE3804 EDX=00000202 EBX=13A2BEEA ESP=0018FE20 EBP=0018FF24 ESI=0040C6FE EDI=0018FE48 EFLAG=00000282
0040A9FD	STC                                                       EAX=FFFFFDFD ECX=77AE3804 EDX=00000202 EBX=13A2BEEA ESP=0018FE1C EBP=0018FF24 ESI=0040C6FE EDI=0018FE48 EFLAG=00000282
0040A9FE	NOT      EDX                                              EAX=FFFFFDFD ECX=77AE3804 EDX=00000202 EBX=13A2BEEA ESP=0018FE1C EBP=0018FF24 ESI=0040C6FE EDI=0018FE48 EFLAG=00000283
0040AA00	CMC                                                       EAX=FFFFFDFD ECX=77AE3804 EDX=FFFFFDFD EBX=13A2BEEA ESP=0018FE1C EBP=0018FF24 ESI=0040C6FE EDI=0018FE48 EFLAG=00000283
0040BD80	AND      EAX, EDX                                         EAX=FFFFFDFD ECX=77AE3804 EDX=FFFFFDFD EBX=13A2BEEA ESP=0018FE1C EBP=0018FF24 ESI=0040C6FE EDI=0018FE48 EFLAG=00000282
0040BD82	CALL     0x40b402                                         EAX=FFFFFDFD ECX=77AE3804 EDX=FFFFFDFD EBX=13A2BEEA ESP=0018FE1C EBP=0018FF24 ESI=0040C6FE EDI=0018FE48 EFLAG=00000282
0040A3AC	MOV      WORD [ESP+0x4], 0x9f8                            EAX=FFFFFDFD ECX=77AE3804 EDX=FFFFFDFD EBX=13A2BEEA ESP=0018FE18 EBP=0018FF24 ESI=0040C6FE EDI=0018FE48 EFLAG=00000282
0040A3B3	MOV      [EBP+0x4], EAX                                   EAX=FFFFFDFD ECX=77AE3804 EDX=FFFFFDFD EBX=13A2BEEA ESP=0018FE18 EBP=0018FF24 ESI=0040C6FE EDI=0018FE48 EFLAG=00000282
0040AF1A	PUSHF                                                     EAX=FFFFFDFD ECX=77AE3804 EDX=FFFFFDFD EBX=13A2BEEA ESP=0018FE18 EBP=0018FF24 ESI=0040C6FE EDI=0018FE48 EFLAG=00000282
0040AF1B	POP      DWORD [ESP+0x2c]                                 EAX=FFFFFDFD ECX=77AE3804 EDX=FFFFFDFD EBX=13A2BEEA ESP=0018FE14 EBP=0018FF24 ESI=0040C6FE EDI=0018FE48 EFLAG=00000282
0040AF1F	CALL     0x40ab63                                         EAX=FFFFFDFD ECX=77AE3804 EDX=FFFFFDFD EBX=13A2BEEA ESP=0018FE18 EBP=0018FF24 ESI=0040C6FE EDI=0018FE48 EFLAG=00000282
0040AB63	MOV      BYTE [ESP+0x8], 0x9                              EAX=FFFFFDFD ECX=77AE3804 EDX=FFFFFDFD EBX=13A2BEEA ESP=0018FE14 EBP=0018FF24 ESI=0040C6FE EDI=0018FE48 EFLAG=00000282
0040AB68	PUSH     DWORD [ESP+0x30]                                 EAX=FFFFFDFD ECX=77AE3804 EDX=FFFFFDFD EBX=13A2BEEA ESP=0018FE14 EBP=0018FF24 ESI=0040C6FE EDI=0018FE48 EFLAG=00000282
0040AB6C	POP      DWORD [EBP+0x0]                                  EAX=FFFFFDFD ECX=77AE3804 EDX=FFFFFDFD EBX=13A2BEEA ESP=0018FE10 EBP=0018FF24 ESI=0040C6FE EDI=0018FE48 EFLAG=00000282
0040AB6F	PUSH     EDI                                              EAX=FFFFFDFD ECX=77AE3804 EDX=FFFFFDFD EBX=13A2BEEA ESP=0018FE14 EBP=0018FF24 ESI=0040C6FE EDI=0018FE48 EFLAG=00000282
0040AB70	PUSHF                                                     EAX=FFFFFDFD ECX=77AE3804 EDX=FFFFFDFD EBX=13A2BEEA ESP=0018FE10 EBP=0018FF24 ESI=0040C6FE EDI=0018FE48 EFLAG=00000282
0040AB71	LEA      ESP, [ESP+0x3c]                                  EAX=FFFFFDFD ECX=77AE3804 EDX=FFFFFDFD EBX=13A2BEEA ESP=0018FE0C EBP=0018FF24 ESI=0040C6FE EDI=0018FE48 EFLAG=00000282
0040BEFD	BSWAP    DX                                               EAX=FFFFFDFD ECX=77AE3804 EDX=FFFFFDFD EBX=13A2BEEA ESP=0018FE48 EBP=0018FF24 ESI=0040C6FE EDI=0018FE48 EFLAG=00000282
0040BF00	RCL      DL, CL                                           EAX=FFFFFDFD ECX=77AE3804 EDX=FFFF0000 EBX=13A2BEEA ESP=0018FE48 EBP=0018FF24 ESI=0040C6FE EDI=0018FE48 EFLAG=00000282
0040BF02	PUSHA                                                     EAX=FFFFFDFD ECX=77AE3804 EDX=FFFF0000 EBX=13A2BEEA ESP=0018FE48 EBP=0018FF24 ESI=0040C6FE EDI=0018FE48 EFLAG=00000282
0040BF03	AND      EDX, 0xfdc85d80                                  EAX=FFFFFDFD ECX=77AE3804 EDX=FFFF0000 EBX=13A2BEEA ESP=0018FE28 EBP=0018FF24 ESI=0040C6FE EDI=0018FE48 EFLAG=00000282
0040BF09	MOV      AL, [ESI-0x1]                                    EAX=FFFFFDFD ECX=77AE3804 EDX=FDC80000 EBX=13A2BEEA ESP=0018FE28 EBP=0018FF24 ESI=0040C6FE EDI=0018FE48 EFLAG=00000286
0040BF0C	DEC      DH                                               EAX=FFFFFDE2 ECX=77AE3804 EDX=FDC80000 EBX=13A2BEEA ESP=0018FE28 EBP=0018FF24 ESI=0040C6FE EDI=0018FE48 EFLAG=00000286
0040BF0E	SUB      AL, BL                                           EAX=FFFFFDE2 ECX=77AE3804 EDX=FDC8FF00 EBX=13A2BEEA ESP=0018FE28 EBP=0018FF24 ESI=0040C6FE EDI=0018FE48 EFLAG=00000296
0040BF10	PUSHF                                                     EAX=FFFFFDF8 ECX=77AE3804 EDX=FDC8FF00 EBX=13A2BEEA ESP=0018FE28 EBP=0018FF24 ESI=0040C6FE EDI=0018FE48 EFLAG=00000293
0040BF11	BTC      DX, 0x4                                          EAX=FFFFFDF8 ECX=77AE3804 EDX=FDC8FF00 EBX=13A2BEEA ESP=0018FE24 EBP=0018FF24 ESI=0040C6FE EDI=0018FE48 EFLAG=00000293
0040BF16	PUSH     ESP                                              EAX=FFFFFDF8 ECX=77AE3804 EDX=FDC8FF10 EBX=13A2BEEA ESP=0018FE24 EBP=0018FF24 ESI=0040C6FE EDI=0018FE48 EFLAG=00000292
0040BF17	MOVZX    DX, AL                                           EAX=FFFFFDF8 ECX=77AE3804 EDX=FDC8FF10 EBX=13A2BEEA ESP=0018FE20 EBP=0018FF24 ESI=0040C6FE EDI=0018FE48 EFLAG=00000292
0040BF1B	ROR      AL, 0x7                                          EAX=FFFFFDF8 ECX=77AE3804 EDX=FDC800F8 EBX=13A2BEEA ESP=0018FE20 EBP=0018FF24 ESI=0040C6FE EDI=0018FE48 EFLAG=00000292
0040BF1E	ROL      DH, 0x3                                          EAX=FFFFFDF1 ECX=77AE3804 EDX=FDC800F8 EBX=13A2BEEA ESP=0018FE20 EBP=0018FF24 ESI=0040C6FE EDI=0018FE48 EFLAG=00000293
0040BF21	SUB      AL, 0x30                                         EAX=FFFFFDF1 ECX=77AE3804 EDX=FDC800F8 EBX=13A2BEEA ESP=0018FE20 EBP=0018FF24 ESI=0040C6FE EDI=0018FE48 EFLAG=00000292
0040BF23	SHR      DX, 0x9                                          EAX=FFFFFDC1 ECX=77AE3804 EDX=FDC800F8 EBX=13A2BEEA ESP=0018FE20 EBP=0018FF24 ESI=0040C6FE EDI=0018FE48 EFLAG=00000282
0040BF27	XOR      AL, 0xce                                         EAX=FFFFFDC1 ECX=77AE3804 EDX=FDC80000 EBX=13A2BEEA ESP=0018FE20 EBP=0018FF24 ESI=0040C6FE EDI=0018FE48 EFLAG=00000246
0040BF29	ADC      DL, 0xdb                                         EAX=FFFFFD0F ECX=77AE3804 EDX=FDC80000 EBX=13A2BEEA ESP=0018FE20 EBP=0018FF24 ESI=0040C6FE EDI=0018FE48 EFLAG=00000206
0040BF2C	BT       EBX, EDI                                         EAX=FFFFFD0F ECX=77AE3804 EDX=FDC800DB EBX=13A2BEEA ESP=0018FE20 EBP=0018FF24 ESI=0040C6FE EDI=0018FE48 EFLAG=00000286
0040BF2F	SETL     DH                                               EAX=FFFFFD0F ECX=77AE3804 EDX=FDC800DB EBX=13A2BEEA ESP=0018FE20 EBP=0018FF24 ESI=0040C6FE EDI=0018FE48 EFLAG=00000286
0040BF32	SUB      BL, AL                                           EAX=FFFFFD0F ECX=77AE3804 EDX=FDC801DB EBX=13A2BEEA ESP=0018FE20 EBP=0018FF24 ESI=0040C6FE EDI=0018FE48 EFLAG=00000286
0040BF34	STC                                                       EAX=FFFFFD0F ECX=77AE3804 EDX=FDC801DB EBX=13A2BEDB ESP=0018FE20 EBP=0018FF24 ESI=0040C6FE EDI=0018FE48 EFLAG=00000296
0040BF35	MOVZX    EAX, AL                                          EAX=FFFFFD0F ECX=77AE3804 EDX=FDC801DB EBX=13A2BEDB ESP=0018FE20 EBP=0018FF24 ESI=0040C6FE EDI=0018FE48 EFLAG=00000297
0040BF38	NOT      EDX                                              EAX=0000000F ECX=77AE3804 EDX=FDC801DB EBX=13A2BEDB ESP=0018FE20 EBP=0018FF24 ESI=0040C6FE EDI=0018FE48 EFLAG=00000297
0040BF3A	BSF      EDX, EDI                                         EAX=0000000F ECX=77AE3804 EDX=0237FE24 EBX=13A2BEDB ESP=0018FE20 EBP=0018FF24 ESI=0040C6FE EDI=0018FE48 EFLAG=00000297
0040BF3E	CMC                                                       EAX=0000000F ECX=77AE3804 EDX=02370003 EBX=13A2BEDB ESP=0018FE20 EBP=0018FF24 ESI=0040C6FE EDI=0018FE48 EFLAG=00000206
0040BF3F	SAL      DH, CL                                           EAX=0000000F ECX=77AE3804 EDX=02370003 EBX=13A2BEDB ESP=0018FE20 EBP=0018FF24 ESI=0040C6FE EDI=0018FE48 EFLAG=00000207
0040BF41	MOV      EDX, [EAX*4+0x40a51f]                            EAX=0000000F ECX=77AE3804 EDX=02370003 EBX=13A2BEDB ESP=0018FE20 EBP=0018FF24 ESI=0040C6FE EDI=0018FE48 EFLAG=00000246
0040BF48	TEST     EDX, 0xe75c2a09                                  EAX=0000000F ECX=77AE3804 EDX=2BFA6887 EBX=13A2BEDB ESP=0018FE20 EBP=0018FF24 ESI=0040C6FE EDI=0018FE48 EFLAG=00000246
0040BF4E	TEST     BL, DL                                           EAX=0000000F ECX=77AE3804 EDX=2BFA6887 EBX=13A2BEDB ESP=0018FE20 EBP=0018FF24 ESI=0040C6FE EDI=0018FE48 EFLAG=00000202
0040BF50	SUB      EDX, 0x2bb9b71b                                  EAX=0000000F ECX=77AE3804 EDX=2BFA6887 EBX=13A2BEDB ESP=0018FE20 EBP=0018FF24 ESI=0040C6FE EDI=0018FE48 EFLAG=00000282
0040BF56	CALL     0x40bd78                                         EAX=0000000F ECX=77AE3804 EDX=0040B16C EBX=13A2BEDB ESP=0018FE20 EBP=0018FF24 ESI=0040C6FE EDI=0018FE48 EFLAG=00000216
0040BD78	PUSH     EDX                                              EAX=0000000F ECX=77AE3804 EDX=0040B16C EBX=13A2BEDB ESP=0018FE1C EBP=0018FF24 ESI=0040C6FE EDI=0018FE48 EFLAG=00000216
0040BD79	DEC      ESI                                              EAX=0000000F ECX=77AE3804 EDX=0040B16C EBX=13A2BEDB ESP=0018FE18 EBP=0018FF24 ESI=0040C6FE EDI=0018FE48 EFLAG=00000216
0040BD7A	PUSHF                                                     EAX=0000000F ECX=77AE3804 EDX=0040B16C EBX=13A2BEDB ESP=0018FE18 EBP=0018FF24 ESI=0040C6FD EDI=0018FE48 EFLAG=00000202
0040A91F	MOV      [ESP], DH                                        EAX=0000000F ECX=77AE3804 EDX=0040B16C EBX=13A2BEDB ESP=0018FE14 EBP=0018FF24 ESI=0040C6FD EDI=0018FE48 EFLAG=00000202
0040A922	MOV      [ESP+0x30], EDX                                  EAX=0000000F ECX=77AE3804 EDX=0040B16C EBX=13A2BEDB ESP=0018FE14 EBP=0018FF24 ESI=0040C6FD EDI=0018FE48 EFLAG=00000202
0040A926	MOV      [ESP], AL                                        EAX=0000000F ECX=77AE3804 EDX=0040B16C EBX=13A2BEDB ESP=0018FE14 EBP=0018FF24 ESI=0040C6FD EDI=0018FE48 EFLAG=00000202
0040A929	PUSH     DWORD [ESP+0x30]                                 EAX=0000000F ECX=77AE3804 EDX=0040B16C EBX=13A2BEDB ESP=0018FE14 EBP=0018FF24 ESI=0040C6FD EDI=0018FE48 EFLAG=00000202
0040A92D	RET      0x34                                             EAX=0000000F ECX=77AE3804 EDX=0040B16C EBX=13A2BEDB ESP=0018FE10 EBP=0018FF24 ESI=0040C6FD EDI=0018FE48 EFLAG=00000202
0040B16C	CALL     0x40bb09                                         EAX=0000000F ECX=77AE3804 EDX=0040B16C EBX=13A2BEDB ESP=0018FE48 EBP=0018FF24 ESI=0040C6FD EDI=0018FE48 EFLAG=00000202
0040BB09	SUB      DL, AH                                           EAX=0000000F ECX=77AE3804 EDX=0040B16C EBX=13A2BEDB ESP=0018FE44 EBP=0018FF24 ESI=0040C6FD EDI=0018FE48 EFLAG=00000202
0040BB0B	MOV      AL, [ESI-0x1]                                    EAX=0000000F ECX=77AE3804 EDX=0040B16C EBX=13A2BEDB ESP=0018FE44 EBP=0018FF24 ESI=0040C6FD EDI=0018FE48 EFLAG=00000206
0040BB0E	LEA      ESP, [ESP+0x4]                                   EAX=000000F6 ECX=77AE3804 EDX=0040B16C EBX=13A2BEDB ESP=0018FE44 EBP=0018FF24 ESI=0040C6FD EDI=0018FE48 EFLAG=00000206
0040BB12	JNP      0x40bd9a                                         EAX=000000F6 ECX=77AE3804 EDX=0040B16C EBX=13A2BEDB ESP=0018FE48 EBP=0018FF24 ESI=0040C6FD EDI=0018FE48 EFLAG=00000206
0040BB18	BSR      EDX, ECX                                         EAX=000000F6 ECX=77AE3804 EDX=0040B16C EBX=13A2BEDB ESP=0018FE48 EBP=0018FF24 ESI=0040C6FD EDI=0018FE48 EFLAG=00000206
0040BB1B	ADD      AL, BL                                           EAX=000000F6 ECX=77AE3804 EDX=0000001E EBX=13A2BEDB ESP=0018FE48 EBP=0018FF24 ESI=0040C6FD EDI=0018FE48 EFLAG=00000206
0040BB1D	PUSH     EDX                                              EAX=000000D1 ECX=77AE3804 EDX=0000001E EBX=13A2BEDB ESP=0018FE48 EBP=0018FF24 ESI=0040C6FD EDI=0018FE48 EFLAG=00000297
0040BB1E	DEC      AL                                               EAX=000000D1 ECX=77AE3804 EDX=0000001E EBX=13A2BEDB ESP=0018FE44 EBP=0018FF24 ESI=0040C6FD EDI=0018FE48 EFLAG=00000297
0040BB20	DEC      DH                                               EAX=000000D0 ECX=77AE3804 EDX=0000001E EBX=13A2BEDB ESP=0018FE44 EBP=0018FF24 ESI=0040C6FD EDI=0018FE48 EFLAG=00000283
0040BB22	NEG      AL                                               EAX=000000D0 ECX=77AE3804 EDX=0000FF1E EBX=13A2BEDB ESP=0018FE44 EBP=0018FF24 ESI=0040C6FD EDI=0018FE48 EFLAG=00000297
0040BB24	CALL     0x40b99f                                         EAX=00000030 ECX=77AE3804 EDX=0000FF1E EBX=13A2BEDB ESP=0018FE44 EBP=0018FF24 ESI=0040C6FD EDI=0018FE48 EFLAG=00000207
0040B99F	BTC      EDX, 0xe                                         EAX=00000030 ECX=77AE3804 EDX=0000FF1E EBX=13A2BEDB ESP=0018FE40 EBP=0018FF24 ESI=0040C6FD EDI=0018FE48 EFLAG=00000207
0040B9A3	MOVZX    EDX, DL                                          EAX=00000030 ECX=77AE3804 EDX=0000BF1E EBX=13A2BEDB ESP=0018FE40 EBP=0018FF24 ESI=0040C6FD EDI=0018FE48 EFLAG=00000207
0040B9A6	CMC                                                       EAX=00000030 ECX=77AE3804 EDX=0000001E EBX=13A2BEDB ESP=0018FE40 EBP=0018FF24 ESI=0040C6FD EDI=0018FE48 EFLAG=00000207
0040B9A7	ROR      AL, 0x1                                          EAX=00000030 ECX=77AE3804 EDX=0000001E EBX=13A2BEDB ESP=0018FE40 EBP=0018FF24 ESI=0040C6FD EDI=0018FE48 EFLAG=00000206
0040B9A9	SBB      DX, 0x612a                                       EAX=00000018 ECX=77AE3804 EDX=0000001E EBX=13A2BEDB ESP=0018FE40 EBP=0018FF24 ESI=0040C6FD EDI=0018FE48 EFLAG=00000206
0040B9AE	ADC      DL, DL                                           EAX=00000018 ECX=77AE3804 EDX=00009EF4 EBX=13A2BEDB ESP=0018FE40 EBP=0018FF24 ESI=0040C6FD EDI=0018FE48 EFLAG=00000283
0040B9B0	ADD      DX, CX                                           EAX=00000018 ECX=77AE3804 EDX=00009EE9 EBX=13A2BEDB ESP=0018FE40 EBP=0018FF24 ESI=0040C6FD EDI=0018FE48 EFLAG=00000283
0040B9B3	BSWAP    DX                                               EAX=00000018 ECX=77AE3804 EDX=0000D6ED EBX=13A2BEDB ESP=0018FE40 EBP=0018FF24 ESI=0040C6FD EDI=0018FE48 EFLAG=00000286
0040B9B6	ADD      BL, AL                                           EAX=00000018 ECX=77AE3804 EDX=00000000 EBX=13A2BEDB ESP=0018FE40 EBP=0018FF24 ESI=0040C6FD EDI=0018FE48 EFLAG=00000286
0040B9B8	AND      EDX, ESP                                         EAX=00000018 ECX=77AE3804 EDX=00000000 EBX=13A2BEF3 ESP=0018FE40 EBP=0018FF24 ESI=0040C6FD EDI=0018FE48 EFLAG=00000296
0040B9BA	LEA      ESI, [ESI-0x1]                                   EAX=00000018 ECX=77AE3804 EDX=00000000 EBX=13A2BEF3 ESP=0018FE40 EBP=0018FF24 ESI=0040C6FD EDI=0018FE48 EFLAG=00000246
0040B9BD	SHRD     DX, SP, CL                                       EAX=00000018 ECX=77AE3804 EDX=00000000 EBX=13A2BEF3 ESP=0018FE40 EBP=0018FF24 ESI=0040C6FC EDI=0018FE48 EFLAG=00000246
0040B9C1	INC      DX                                               EAX=00000018 ECX=77AE3804 EDX=00000000 EBX=13A2BEF3 ESP=0018FE40 EBP=0018FF24 ESI=0040C6FC EDI=0018FE48 EFLAG=00000246
0040B9C4	SBB      EDX, EDX                                         EAX=00000018 ECX=77AE3804 EDX=00000001 EBX=13A2BEF3 ESP=0018FE40 EBP=0018FF24 ESI=0040C6FC EDI=0018FE48 EFLAG=00000202
0040B9C6	ADD      DX, 0x9dea                                       EAX=00000018 ECX=77AE3804 EDX=00000000 EBX=13A2BEF3 ESP=0018FE40 EBP=0018FF24 ESI=0040C6FC EDI=0018FE48 EFLAG=00000246
0040B9CB	MOV      EDX, [EBP+0x0]                                   EAX=00000018 ECX=77AE3804 EDX=00009DEA EBX=13A2BEF3 ESP=0018FE40 EBP=0018FF24 ESI=0040C6FC EDI=0018FE48 EFLAG=00000282
0040B9CE	PUSHA                                                     EAX=00000018 ECX=77AE3804 EDX=00000282 EBX=13A2BEF3 ESP=0018FE40 EBP=0018FF24 ESI=0040C6FC EDI=0018FE48 EFLAG=00000282
0040B9CF	STC                                                       EAX=00000018 ECX=77AE3804 EDX=00000282 EBX=13A2BEF3 ESP=0018FE20 EBP=0018FF24 ESI=0040C6FC EDI=0018FE48 EFLAG=00000282
0040B9D0	CALL     0x40c120                                         EAX=00000018 ECX=77AE3804 EDX=00000282 EBX=13A2BEF3 ESP=0018FE20 EBP=0018FF24 ESI=0040C6FC EDI=0018FE48 EFLAG=00000283
0040B3B2	ADD      EBP, 0x4                                         EAX=00000018 ECX=77AE3804 EDX=00000282 EBX=13A2BEF3 ESP=0018FE1C EBP=0018FF24 ESI=0040C6FC EDI=0018FE48 EFLAG=00000283
0040B3B5	CALL     0x40c167                                         EAX=00000018 ECX=77AE3804 EDX=00000282 EBX=13A2BEF3 ESP=0018FE1C EBP=0018FF28 ESI=0040C6FC EDI=0018FE48 EFLAG=00000206
0040C167	MOV      [EAX+EDI], EDX                                   EAX=00000018 ECX=77AE3804 EDX=00000282 EBX=13A2BEF3 ESP=0018FE18 EBP=0018FF28 ESI=0040C6FC EDI=0018FE48 EFLAG=00000206
0040C16A	MOV      WORD [ESP+0x4], 0x4a62                           EAX=00000018 ECX=77AE3804 EDX=00000282 EBX=13A2BEF3 ESP=0018FE18 EBP=0018FF28 ESI=0040C6FC EDI=0018FE48 EFLAG=00000206
0040C171	MOV      [ESP], DH                                        EAX=00000018 ECX=77AE3804 EDX=00000282 EBX=13A2BEF3 ESP=0018FE18 EBP=0018FF28 ESI=0040C6FC EDI=0018FE48 EFLAG=00000206
0040C174	PUSHF                                                     EAX=00000018 ECX=77AE3804 EDX=00000282 EBX=13A2BEF3 ESP=0018FE18 EBP=0018FF28 ESI=0040C6FC EDI=0018FE48 EFLAG=00000206
0040C175	PUSHF                                                     EAX=00000018 ECX=77AE3804 EDX=00000282 EBX=13A2BEF3 ESP=0018FE14 EBP=0018FF28 ESI=0040C6FC EDI=0018FE48 EFLAG=00000206
0040C176	LEA      ESP, [ESP+0x38]                                  EAX=00000018 ECX=77AE3804 EDX=00000282 EBX=13A2BEF3 ESP=0018FE10 EBP=0018FF28 ESI=0040C6FC EDI=0018FE48 EFLAG=00000206
0040BEFD	BSWAP    DX                                               EAX=00000018 ECX=77AE3804 EDX=00000282 EBX=13A2BEF3 ESP=0018FE48 EBP=0018FF28 ESI=0040C6FC EDI=0018FE48 EFLAG=00000206
0040BF00	RCL      DL, CL                                           EAX=00000018 ECX=77AE3804 EDX=00000000 EBX=13A2BEF3 ESP=0018FE48 EBP=0018FF28 ESI=0040C6FC EDI=0018FE48 EFLAG=00000206
0040BF02	PUSHA                                                     EAX=00000018 ECX=77AE3804 EDX=00000000 EBX=13A2BEF3 ESP=0018FE48 EBP=0018FF28 ESI=0040C6FC EDI=0018FE48 EFLAG=00000206
0040BF03	AND      EDX, 0xfdc85d80                                  EAX=00000018 ECX=77AE3804 EDX=00000000 EBX=13A2BEF3 ESP=0018FE28 EBP=0018FF28 ESI=0040C6FC EDI=0018FE48 EFLAG=00000206
0040BF09	MOV      AL, [ESI-0x1]                                    EAX=00000018 ECX=77AE3804 EDX=00000000 EBX=13A2BEF3 ESP=0018FE28 EBP=0018FF28 ESI=0040C6FC EDI=0018FE48 EFLAG=00000246
0040BF0C	DEC      DH                                               EAX=00000061 ECX=77AE3804 EDX=00000000 EBX=13A2BEF3 ESP=0018FE28 EBP=0018FF28 ESI=0040C6FC EDI=0018FE48 EFLAG=00000246
0040BF0E	SUB      AL, BL                                           EAX=00000061 ECX=77AE3804 EDX=0000FF00 EBX=13A2BEF3 ESP=0018FE28 EBP=0018FF28 ESI=0040C6FC EDI=0018FE48 EFLAG=00000296
0040BF10	PUSHF                                                     EAX=0000006E ECX=77AE3804 EDX=0000FF00 EBX=13A2BEF3 ESP=0018FE28 EBP=0018FF28 ESI=0040C6FC EDI=0018FE48 EFLAG=00000213
0040BF11	BTC      DX, 0x4                                          EAX=0000006E ECX=77AE3804 EDX=0000FF00 EBX=13A2BEF3 ESP=0018FE24 EBP=0018FF28 ESI=0040C6FC EDI=0018FE48 EFLAG=00000213
0040BF16	PUSH     ESP                                              EAX=0000006E ECX=77AE3804 EDX=0000FF10 EBX=13A2BEF3 ESP=0018FE24 EBP=0018FF28 ESI=0040C6FC EDI=0018FE48 EFLAG=00000212
0040BF17	MOVZX    DX, AL                                           EAX=0000006E ECX=77AE3804 EDX=0000FF10 EBX=13A2BEF3 ESP=0018FE20 EBP=0018FF28 ESI=0040C6FC EDI=0018FE48 EFLAG=00000212
0040BF1B	ROR      AL, 0x7                                          EAX=0000006E ECX=77AE3804 EDX=0000006E EBX=13A2BEF3 ESP=0018FE20 EBP=0018FF28 ESI=0040C6FC EDI=0018FE48 EFLAG=00000212
0040BF1E	ROL      DH, 0x3                                          EAX=000000DC ECX=77AE3804 EDX=0000006E EBX=13A2BEF3 ESP=0018FE20 EBP=0018FF28 ESI=0040C6FC EDI=0018FE48 EFLAG=00000213
0040BF21	SUB      AL, 0x30                                         EAX=000000DC ECX=77AE3804 EDX=0000006E EBX=13A2BEF3 ESP=0018FE20 EBP=0018FF28 ESI=0040C6FC EDI=0018FE48 EFLAG=00000212
0040BF23	SHR      DX, 0x9                                          EAX=000000AC ECX=77AE3804 EDX=0000006E EBX=13A2BEF3 ESP=0018FE20 EBP=0018FF28 ESI=0040C6FC EDI=0018FE48 EFLAG=00000286
0040BF27	XOR      AL, 0xce                                         EAX=000000AC ECX=77AE3804 EDX=00000000 EBX=13A2BEF3 ESP=0018FE20 EBP=0018FF28 ESI=0040C6FC EDI=0018FE48 EFLAG=00000246
0040BF29	ADC      DL, 0xdb                                         EAX=00000062 ECX=77AE3804 EDX=00000000 EBX=13A2BEF3 ESP=0018FE20 EBP=0018FF28 ESI=0040C6FC EDI=0018FE48 EFLAG=00000202
0040BF2C	BT       EBX, EDI                                         EAX=00000062 ECX=77AE3804 EDX=000000DB EBX=13A2BEF3 ESP=0018FE20 EBP=0018FF28 ESI=0040C6FC EDI=0018FE48 EFLAG=00000286
0040BF2F	SETL     DH                                               EAX=00000062 ECX=77AE3804 EDX=000000DB EBX=13A2BEF3 ESP=0018FE20 EBP=0018FF28 ESI=0040C6FC EDI=0018FE48 EFLAG=00000286
0040BF32	SUB      BL, AL                                           EAX=00000062 ECX=77AE3804 EDX=000001DB EBX=13A2BEF3 ESP=0018FE20 EBP=0018FF28 ESI=0040C6FC EDI=0018FE48 EFLAG=00000286
0040BF34	STC                                                       EAX=00000062 ECX=77AE3804 EDX=000001DB EBX=13A2BE91 ESP=0018FE20 EBP=0018FF28 ESI=0040C6FC EDI=0018FE48 EFLAG=00000282
0040BF35	MOVZX    EAX, AL                                          EAX=00000062 ECX=77AE3804 EDX=000001DB EBX=13A2BE91 ESP=0018FE20 EBP=0018FF28 ESI=0040C6FC EDI=0018FE48 EFLAG=00000283
0040BF38	NOT      EDX                                              EAX=00000062 ECX=77AE3804 EDX=000001DB EBX=13A2BE91 ESP=0018FE20 EBP=0018FF28 ESI=0040C6FC EDI=0018FE48 EFLAG=00000283
0040BF3A	BSF      EDX, EDI                                         EAX=00000062 ECX=77AE3804 EDX=FFFFFE24 EBX=13A2BE91 ESP=0018FE20 EBP=0018FF28 ESI=0040C6FC EDI=0018FE48 EFLAG=00000283
0040BF3E	CMC                                                       EAX=00000062 ECX=77AE3804 EDX=FFFF0003 EBX=13A2BE91 ESP=0018FE20 EBP=0018FF28 ESI=0040C6FC EDI=0018FE48 EFLAG=00000206
0040BF3F	SAL      DH, CL                                           EAX=00000062 ECX=77AE3804 EDX=FFFF0003 EBX=13A2BE91 ESP=0018FE20 EBP=0018FF28 ESI=0040C6FC EDI=0018FE48 EFLAG=00000207
0040BF41	MOV      EDX, [EAX*4+0x40a51f]                            EAX=00000062 ECX=77AE3804 EDX=FFFF0003 EBX=13A2BE91 ESP=0018FE20 EBP=0018FF28 ESI=0040C6FC EDI=0018FE48 EFLAG=00000246
0040BF48	TEST     EDX, 0xe75c2a09                                  EAX=00000062 ECX=77AE3804 EDX=2BFA6557 EBX=13A2BE91 ESP=0018FE20 EBP=0018FF28 ESI=0040C6FC EDI=0018FE48 EFLAG=00000246
0040BF4E	TEST     BL, DL                                           EAX=00000062 ECX=77AE3804 EDX=2BFA6557 EBX=13A2BE91 ESP=0018FE20 EBP=0018FF28 ESI=0040C6FC EDI=0018FE48 EFLAG=00000202
0040BF50	SUB      EDX, 0x2bb9b71b                                  EAX=00000062 ECX=77AE3804 EDX=2BFA6557 EBX=13A2BE91 ESP=0018FE20 EBP=0018FF28 ESI=0040C6FC EDI=0018FE48 EFLAG=00000206
0040BF56	CALL     0x40bd78                                         EAX=00000062 ECX=77AE3804 EDX=0040AE3C EBX=13A2BE91 ESP=0018FE20 EBP=0018FF28 ESI=0040C6FC EDI=0018FE48 EFLAG=00000216
0040BD78	PUSH     EDX                                              EAX=00000062 ECX=77AE3804 EDX=0040AE3C EBX=13A2BE91 ESP=0018FE1C EBP=0018FF28 ESI=0040C6FC EDI=0018FE48 EFLAG=00000216
0040BD79	DEC      ESI                                              EAX=00000062 ECX=77AE3804 EDX=0040AE3C EBX=13A2BE91 ESP=0018FE18 EBP=0018FF28 ESI=0040C6FC EDI=0018FE48 EFLAG=00000216
0040BD7A	PUSHF                                                     EAX=00000062 ECX=77AE3804 EDX=0040AE3C EBX=13A2BE91 ESP=0018FE18 EBP=0018FF28 ESI=0040C6FB EDI=0018FE48 EFLAG=00000202
0040A91F	MOV      [ESP], DH                                        EAX=00000062 ECX=77AE3804 EDX=0040AE3C EBX=13A2BE91 ESP=0018FE14 EBP=0018FF28 ESI=0040C6FB EDI=0018FE48 EFLAG=00000202
0040A922	MOV      [ESP+0x30], EDX                                  EAX=00000062 ECX=77AE3804 EDX=0040AE3C EBX=13A2BE91 ESP=0018FE14 EBP=0018FF28 ESI=0040C6FB EDI=0018FE48 EFLAG=00000202
0040A926	MOV      [ESP], AL                                        EAX=00000062 ECX=77AE3804 EDX=0040AE3C EBX=13A2BE91 ESP=0018FE14 EBP=0018FF28 ESI=0040C6FB EDI=0018FE48 EFLAG=00000202
0040A929	PUSH     DWORD [ESP+0x30]                                 EAX=00000062 ECX=77AE3804 EDX=0040AE3C EBX=13A2BE91 ESP=0018FE14 EBP=0018FF28 ESI=0040C6FB EDI=0018FE48 EFLAG=00000202
0040A92D	RET      0x34                                             EAX=00000062 ECX=77AE3804 EDX=0040AE3C EBX=13A2BE91 ESP=0018FE10 EBP=0018FF28 ESI=0040C6FB EDI=0018FE48 EFLAG=00000202
0040AE3C	SAR      AL, CL                                           EAX=00000062 ECX=77AE3804 EDX=0040AE3C EBX=13A2BE91 ESP=0018FE48 EBP=0018FF28 ESI=0040C6FB EDI=0018FE48 EFLAG=00000202
0040AE3E	MOV      EAX, [ESI-0x4]                                   EAX=00000006 ECX=77AE3804 EDX=0040AE3C EBX=13A2BE91 ESP=0018FE48 EBP=0018FF28 ESI=0040C6FB EDI=0018FE48 EFLAG=00000206
0040AE41	PUSHA                                                     EAX=8661C39E ECX=77AE3804 EDX=0040AE3C EBX=13A2BE91 ESP=0018FE48 EBP=0018FF28 ESI=0040C6FB EDI=0018FE48 EFLAG=00000206
0040B3CF	PUSHA                                                     EAX=8661C39E ECX=77AE3804 EDX=0040AE3C EBX=13A2BE91 ESP=0018FE28 EBP=0018FF28 ESI=0040C6FB EDI=0018FE48 EFLAG=00000206
0040B3D0	CALL     0x40c0c5                                         EAX=8661C39E ECX=77AE3804 EDX=0040AE3C EBX=13A2BE91 ESP=0018FE08 EBP=0018FF28 ESI=0040C6FB EDI=0018FE48 EFLAG=00000206
0040C0C5	BSWAP    EAX                                              EAX=8661C39E ECX=77AE3804 EDX=0040AE3C EBX=13A2BE91 ESP=0018FE04 EBP=0018FF28 ESI=0040C6FB EDI=0018FE48 EFLAG=00000206
0040C0C7	TEST     AL, DL                                           EAX=9EC36186 ECX=77AE3804 EDX=0040AE3C EBX=13A2BE91 ESP=0018FE04 EBP=0018FF28 ESI=0040C6FB EDI=0018FE48 EFLAG=00000206
0040C0C9	TEST     AL, DH                                           EAX=9EC36186 ECX=77AE3804 EDX=0040AE3C EBX=13A2BE91 ESP=0018FE04 EBP=0018FF28 ESI=0040C6FB EDI=0018FE48 EFLAG=00000202
0040C0CB	XOR      EAX, EBX                                         EAX=9EC36186 ECX=77AE3804 EDX=0040AE3C EBX=13A2BE91 ESP=0018FE04 EBP=0018FF28 ESI=0040C6FB EDI=0018FE48 EFLAG=00000282
0040C0CD	TEST     DH, AL                                           EAX=8D61DF17 ECX=77AE3804 EDX=0040AE3C EBX=13A2BE91 ESP=0018FE04 EBP=0018FF28 ESI=0040C6FB EDI=0018FE48 EFLAG=00000286
0040C0CF	STC                                                       EAX=8D61DF17 ECX=77AE3804 EDX=0040AE3C EBX=13A2BE91 ESP=0018FE04 EBP=0018FF28 ESI=0040C6FB EDI=0018FE48 EFLAG=00000206
0040C0D0	NOT      EAX                                              EAX=8D61DF17 ECX=77AE3804 EDX=0040AE3C EBX=13A2BE91 ESP=0018FE04 EBP=0018FF28 ESI=0040C6FB EDI=0018FE48 EFLAG=00000207
0040C0D2	PUSHF                                                     EAX=729E20E8 ECX=77AE3804 EDX=0040AE3C EBX=13A2BE91 ESP=0018FE04 EBP=0018FF28 ESI=0040C6FB EDI=0018FE48 EFLAG=00000207
0040C0D3	TEST     DL, CL                                           EAX=729E20E8 ECX=77AE3804 EDX=0040AE3C EBX=13A2BE91 ESP=0018FE00 EBP=0018FF28 ESI=0040C6FB EDI=0018FE48 EFLAG=00000207
0040C0D5	CMC                                                       EAX=729E20E8 ECX=77AE3804 EDX=0040AE3C EBX=13A2BE91 ESP=0018FE00 EBP=0018FF28 ESI=0040C6FB EDI=0018FE48 EFLAG=00000202
0040C0D6	SUB      EAX, 0x4e8d70e8                                  EAX=729E20E8 ECX=77AE3804 EDX=0040AE3C EBX=13A2BE91 ESP=0018FE00 EBP=0018FF28 ESI=0040C6FB EDI=0018FE48 EFLAG=00000203
0040C0DB	CALL     0x40c358                                         EAX=2410B000 ECX=77AE3804 EDX=0040AE3C EBX=13A2BE91 ESP=0018FE00 EBP=0018FF28 ESI=0040C6FB EDI=0018FE48 EFLAG=00000206
0040C358	ROL      EAX, 0x1e                                        EAX=2410B000 ECX=77AE3804 EDX=0040AE3C EBX=13A2BE91 ESP=0018FDFC EBP=0018FF28 ESI=0040C6FB EDI=0018FE48 EFLAG=00000206
0040B4FA	CALL     0x40c30e                                         EAX=09042C00 ECX=77AE3804 EDX=0040AE3C EBX=13A2BE91 ESP=0018FDFC EBP=0018FF28 ESI=0040C6FB EDI=0018FE48 EFLAG=00000206
0040C30E	STC                                                       EAX=09042C00 ECX=77AE3804 EDX=0040AE3C EBX=13A2BE91 ESP=0018FDF8 EBP=0018FF28 ESI=0040C6FB EDI=0018FE48 EFLAG=00000206
0040C30F	ADD      ESI, -0x4                                        EAX=09042C00 ECX=77AE3804 EDX=0040AE3C EBX=13A2BE91 ESP=0018FDF8 EBP=0018FF28 ESI=0040C6FB EDI=0018FE48 EFLAG=00000207
0040C312	STC                                                       EAX=09042C00 ECX=77AE3804 EDX=0040AE3C EBX=13A2BE91 ESP=0018FDF8 EBP=0018FF28 ESI=0040C6F7 EDI=0018FE48 EFLAG=00000213
0040C313	XOR      EBX, EAX                                         EAX=09042C00 ECX=77AE3804 EDX=0040AE3C EBX=13A2BE91 ESP=0018FDF8 EBP=0018FF28 ESI=0040C6F7 EDI=0018FE48 EFLAG=00000213
0040C315	STC                                                       EAX=09042C00 ECX=77AE3804 EDX=0040AE3C EBX=1AA69291 ESP=0018FDF8 EBP=0018FF28 ESI=0040C6F7 EDI=0018FE48 EFLAG=00000202
0040C316	CALL     0x40bbd4                                         EAX=09042C00 ECX=77AE3804 EDX=0040AE3C EBX=1AA69291 ESP=0018FDF8 EBP=0018FF28 ESI=0040C6F7 EDI=0018FE48 EFLAG=00000203
0040BBD4	CMP      BL, CL                                           EAX=09042C00 ECX=77AE3804 EDX=0040AE3C EBX=1AA69291 ESP=0018FDF4 EBP=0018FF28 ESI=0040C6F7 EDI=0018FE48 EFLAG=00000203
0040BBD6	CMP      DH, 0xaa                                         EAX=09042C00 ECX=77AE3804 EDX=0040AE3C EBX=1AA69291 ESP=0018FDF4 EBP=0018FF28 ESI=0040C6F7 EDI=0018FE48 EFLAG=00000296
0040BBD9	SUB      EBP, 0x4                                         EAX=09042C00 ECX=77AE3804 EDX=0040AE3C EBX=1AA69291 ESP=0018FDF4 EBP=0018FF28 ESI=0040C6F7 EDI=0018FE48 EFLAG=00000202
0040BBDC	CALL     0x40b70a                                         EAX=09042C00 ECX=77AE3804 EDX=0040AE3C EBX=1AA69291 ESP=0018FDF4 EBP=0018FF24 ESI=0040C6F7 EDI=0018FE48 EFLAG=00000206
0040B449	MOV      [ESP+0xc], CH                                    EAX=09042C00 ECX=77AE3804 EDX=0040AE3C EBX=1AA69291 ESP=0018FDF0 EBP=0018FF24 ESI=0040C6F7 EDI=0018FE48 EFLAG=00000206
0040B44D	MOV      [EBP+0x0], EAX                                   EAX=09042C00 ECX=77AE3804 EDX=0040AE3C EBX=1AA69291 ESP=0018FDF0 EBP=0018FF24 ESI=0040C6F7 EDI=0018FE48 EFLAG=00000206
0040B450	MOV      BYTE [ESP], 0x39                                 EAX=09042C00 ECX=77AE3804 EDX=0040AE3C EBX=1AA69291 ESP=0018FDF0 EBP=0018FF24 ESI=0040C6F7 EDI=0018FE48 EFLAG=00000206
0040B454	LEA      ESP, [ESP+0x58]                                  EAX=09042C00 ECX=77AE3804 EDX=0040AE3C EBX=1AA69291 ESP=0018FDF0 EBP=0018FF24 ESI=0040C6F7 EDI=0018FE48 EFLAG=00000206
0040C360	TEST     DH, 0x76                                         EAX=09042C00 ECX=77AE3804 EDX=0040AE3C EBX=1AA69291 ESP=0018FE48 EBP=0018FF24 ESI=0040C6F7 EDI=0018FE48 EFLAG=00000206
0040C363	LEA      EAX, [EDI+0x50]                                  EAX=09042C00 ECX=77AE3804 EDX=0040AE3C EBX=1AA69291 ESP=0018FE48 EBP=0018FF24 ESI=0040C6F7 EDI=0018FE48 EFLAG=00000202
0040C366	PUSH     DWORD 0xa76b4735                                 EAX=0018FE98 ECX=77AE3804 EDX=0040AE3C EBX=1AA69291 ESP=0018FE48 EBP=0018FF24 ESI=0040C6F7 EDI=0018FE48 EFLAG=00000202
0040C36B	STC                                                       EAX=0018FE98 ECX=77AE3804 EDX=0040AE3C EBX=1AA69291 ESP=0018FE44 EBP=0018FF24 ESI=0040C6F7 EDI=0018FE48 EFLAG=00000202
0040C36C	CMP      EBP, EAX                                         EAX=0018FE98 ECX=77AE3804 EDX=0040AE3C EBX=1AA69291 ESP=0018FE44 EBP=0018FF24 ESI=0040C6F7 EDI=0018FE48 EFLAG=00000203
0040C36E	PUSH     DWORD 0xbe8fd443                                 EAX=0018FE98 ECX=77AE3804 EDX=0040AE3C EBX=1AA69291 ESP=0018FE44 EBP=0018FF24 ESI=0040C6F7 EDI=0018FE48 EFLAG=00000212
0040C373	LEA      ESP, [ESP+0x8]                                   EAX=0018FE98 ECX=77AE3804 EDX=0040AE3C EBX=1AA69291 ESP=0018FE40 EBP=0018FF24 ESI=0040C6F7 EDI=0018FE48 EFLAG=00000212
0040C377	JA       0x40befd                                         EAX=0018FE98 ECX=77AE3804 EDX=0040AE3C EBX=1AA69291 ESP=0018FE48 EBP=0018FF24 ESI=0040C6F7 EDI=0018FE48 EFLAG=00000212
0040BEFD	BSWAP    DX                                               EAX=0018FE98 ECX=77AE3804 EDX=0040AE3C EBX=1AA69291 ESP=0018FE48 EBP=0018FF24 ESI=0040C6F7 EDI=0018FE48 EFLAG=00000212
0040BF00	RCL      DL, CL                                           EAX=0018FE98 ECX=77AE3804 EDX=00400000 EBX=1AA69291 ESP=0018FE48 EBP=0018FF24 ESI=0040C6F7 EDI=0018FE48 EFLAG=00000212
0040BF02	PUSHA                                                     EAX=0018FE98 ECX=77AE3804 EDX=00400000 EBX=1AA69291 ESP=0018FE48 EBP=0018FF24 ESI=0040C6F7 EDI=0018FE48 EFLAG=00000212
0040BF03	AND      EDX, 0xfdc85d80                                  EAX=0018FE98 ECX=77AE3804 EDX=00400000 EBX=1AA69291 ESP=0018FE28 EBP=0018FF24 ESI=0040C6F7 EDI=0018FE48 EFLAG=00000212
0040BF09	MOV      AL, [ESI-0x1]                                    EAX=0018FE98 ECX=77AE3804 EDX=00400000 EBX=1AA69291 ESP=0018FE28 EBP=0018FF24 ESI=0040C6F7 EDI=0018FE48 EFLAG=00000206
0040BF0C	DEC      DH                                               EAX=0018FE68 ECX=77AE3804 EDX=00400000 EBX=1AA69291 ESP=0018FE28 EBP=0018FF24 ESI=0040C6F7 EDI=0018FE48 EFLAG=00000206
0040BF0E	SUB      AL, BL                                           EAX=0018FE68 ECX=77AE3804 EDX=0040FF00 EBX=1AA69291 ESP=0018FE28 EBP=0018FF24 ESI=0040C6F7 EDI=0018FE48 EFLAG=00000296
0040BF10	PUSHF                                                     EAX=0018FED7 ECX=77AE3804 EDX=0040FF00 EBX=1AA69291 ESP=0018FE28 EBP=0018FF24 ESI=0040C6F7 EDI=0018FE48 EFLAG=00000A87
0040BF11	BTC      DX, 0x4                                          EAX=0018FED7 ECX=77AE3804 EDX=0040FF00 EBX=1AA69291 ESP=0018FE24 EBP=0018FF24 ESI=0040C6F7 EDI=0018FE48 EFLAG=00000A87
0040BF16	PUSH     ESP                                              EAX=0018FED7 ECX=77AE3804 EDX=0040FF10 EBX=1AA69291 ESP=0018FE24 EBP=0018FF24 ESI=0040C6F7 EDI=0018FE48 EFLAG=00000A86
0040BF17	MOVZX    DX, AL                                           EAX=0018FED7 ECX=77AE3804 EDX=0040FF10 EBX=1AA69291 ESP=0018FE20 EBP=0018FF24 ESI=0040C6F7 EDI=0018FE48 EFLAG=00000A86
0040BF1B	ROR      AL, 0x7                                          EAX=0018FED7 ECX=77AE3804 EDX=004000D7 EBX=1AA69291 ESP=0018FE20 EBP=0018FF24 ESI=0040C6F7 EDI=0018FE48 EFLAG=00000A86
0040BF1E	ROL      DH, 0x3                                          EAX=0018FEAF ECX=77AE3804 EDX=004000D7 EBX=1AA69291 ESP=0018FE20 EBP=0018FF24 ESI=0040C6F7 EDI=0018FE48 EFLAG=00000A87
0040BF21	SUB      AL, 0x30                                         EAX=0018FEAF ECX=77AE3804 EDX=004000D7 EBX=1AA69291 ESP=0018FE20 EBP=0018FF24 ESI=0040C6F7 EDI=0018FE48 EFLAG=00000286
0040BF23	SHR      DX, 0x9                                          EAX=0018FE7F ECX=77AE3804 EDX=004000D7 EBX=1AA69291 ESP=0018FE20 EBP=0018FF24 ESI=0040C6F7 EDI=0018FE48 EFLAG=00000A02
0040BF27	XOR      AL, 0xce                                         EAX=0018FE7F ECX=77AE3804 EDX=00400000 EBX=1AA69291 ESP=0018FE20 EBP=0018FF24 ESI=0040C6F7 EDI=0018FE48 EFLAG=00000246
0040BF29	ADC      DL, 0xdb                                         EAX=0018FEB1 ECX=77AE3804 EDX=00400000 EBX=1AA69291 ESP=0018FE20 EBP=0018FF24 ESI=0040C6F7 EDI=0018FE48 EFLAG=00000286
0040BF2C	BT       EBX, EDI                                         EAX=0018FEB1 ECX=77AE3804 EDX=004000DB EBX=1AA69291 ESP=0018FE20 EBP=0018FF24 ESI=0040C6F7 EDI=0018FE48 EFLAG=00000286
0040BF2F	SETL     DH                                               EAX=0018FEB1 ECX=77AE3804 EDX=004000DB EBX=1AA69291 ESP=0018FE20 EBP=0018FF24 ESI=0040C6F7 EDI=0018FE48 EFLAG=00000286
0040BF32	SUB      BL, AL                                           EAX=0018FEB1 ECX=77AE3804 EDX=004001DB EBX=1AA69291 ESP=0018FE20 EBP=0018FF24 ESI=0040C6F7 EDI=0018FE48 EFLAG=00000286
0040BF34	STC                                                       EAX=0018FEB1 ECX=77AE3804 EDX=004001DB EBX=1AA692E0 ESP=0018FE20 EBP=0018FF24 ESI=0040C6F7 EDI=0018FE48 EFLAG=00000283
0040BF35	MOVZX    EAX, AL                                          EAX=0018FEB1 ECX=77AE3804 EDX=004001DB EBX=1AA692E0 ESP=0018FE20 EBP=0018FF24 ESI=0040C6F7 EDI=0018FE48 EFLAG=00000283
0040BF38	NOT      EDX                                              EAX=000000B1 ECX=77AE3804 EDX=004001DB EBX=1AA692E0 ESP=0018FE20 EBP=0018FF24 ESI=0040C6F7 EDI=0018FE48 EFLAG=00000283
0040BF3A	BSF      EDX, EDI                                         EAX=000000B1 ECX=77AE3804 EDX=FFBFFE24 EBX=1AA692E0 ESP=0018FE20 EBP=0018FF24 ESI=0040C6F7 EDI=0018FE48 EFLAG=00000283
0040BF3E	CMC                                                       EAX=000000B1 ECX=77AE3804 EDX=FFBF0003 EBX=1AA692E0 ESP=0018FE20 EBP=0018FF24 ESI=0040C6F7 EDI=0018FE48 EFLAG=00000206
0040BF3F	SAL      DH, CL                                           EAX=000000B1 ECX=77AE3804 EDX=FFBF0003 EBX=1AA692E0 ESP=0018FE20 EBP=0018FF24 ESI=0040C6F7 EDI=0018FE48 EFLAG=00000207
0040BF41	MOV      EDX, [EAX*4+0x40a51f]                            EAX=000000B1 ECX=77AE3804 EDX=FFBF0003 EBX=1AA692E0 ESP=0018FE20 EBP=0018FF24 ESI=0040C6F7 EDI=0018FE48 EFLAG=00000246
0040BF48	TEST     EDX, 0xe75c2a09                                  EAX=000000B1 ECX=77AE3804 EDX=2BFA64BF EBX=1AA692E0 ESP=0018FE20 EBP=0018FF24 ESI=0040C6F7 EDI=0018FE48 EFLAG=00000246
0040BF4E	TEST     BL, DL                                           EAX=000000B1 ECX=77AE3804 EDX=2BFA64BF EBX=1AA692E0 ESP=0018FE20 EBP=0018FF24 ESI=0040C6F7 EDI=0018FE48 EFLAG=00000206
0040BF50	SUB      EDX, 0x2bb9b71b                                  EAX=000000B1 ECX=77AE3804 EDX=2BFA64BF EBX=1AA692E0 ESP=0018FE20 EBP=0018FF24 ESI=0040C6F7 EDI=0018FE48 EFLAG=00000286
0040BF56	CALL     0x40bd78                                         EAX=000000B1 ECX=77AE3804 EDX=0040ADA4 EBX=1AA692E0 ESP=0018FE20 EBP=0018FF24 ESI=0040C6F7 EDI=0018FE48 EFLAG=00000202
0040BD78	PUSH     EDX                                              EAX=000000B1 ECX=77AE3804 EDX=0040ADA4 EBX=1AA692E0 ESP=0018FE1C EBP=0018FF24 ESI=0040C6F7 EDI=0018FE48 EFLAG=00000202
0040BD79	DEC      ESI                                              EAX=000000B1 ECX=77AE3804 EDX=0040ADA4 EBX=1AA692E0 ESP=0018FE18 EBP=0018FF24 ESI=0040C6F7 EDI=0018FE48 EFLAG=00000202
0040BD7A	PUSHF                                                     EAX=000000B1 ECX=77AE3804 EDX=0040ADA4 EBX=1AA692E0 ESP=0018FE18 EBP=0018FF24 ESI=0040C6F6 EDI=0018FE48 EFLAG=00000206
0040A91F	MOV      [ESP], DH                                        EAX=000000B1 ECX=77AE3804 EDX=0040ADA4 EBX=1AA692E0 ESP=0018FE14 EBP=0018FF24 ESI=0040C6F6 EDI=0018FE48 EFLAG=00000206
0040A922	MOV      [ESP+0x30], EDX                                  EAX=000000B1 ECX=77AE3804 EDX=0040ADA4 EBX=1AA692E0 ESP=0018FE14 EBP=0018FF24 ESI=0040C6F6 EDI=0018FE48 EFLAG=00000206
0040A926	MOV      [ESP], AL                                        EAX=000000B1 ECX=77AE3804 EDX=0040ADA4 EBX=1AA692E0 ESP=0018FE14 EBP=0018FF24 ESI=0040C6F6 EDI=0018FE48 EFLAG=00000206
0040A929	PUSH     DWORD [ESP+0x30]                                 EAX=000000B1 ECX=77AE3804 EDX=0040ADA4 EBX=1AA692E0 ESP=0018FE14 EBP=0018FF24 ESI=0040C6F6 EDI=0018FE48 EFLAG=00000206
0040A92D	RET      0x34                                             EAX=000000B1 ECX=77AE3804 EDX=0040ADA4 EBX=1AA692E0 ESP=0018FE10 EBP=0018FF24 ESI=0040C6F6 EDI=0018FE48 EFLAG=00000206
0040ADA4	PUSHF                                                     EAX=000000B1 ECX=77AE3804 EDX=0040ADA4 EBX=1AA692E0 ESP=0018FE48 EBP=0018FF24 ESI=0040C6F6 EDI=0018FE48 EFLAG=00000206
0040ADA5	XADD     DX, AX                                           EAX=000000B1 ECX=77AE3804 EDX=0040ADA4 EBX=1AA692E0 ESP=0018FE44 EBP=0018FF24 ESI=0040C6F6 EDI=0018FE48 EFLAG=00000206
0040ADA9	BTS      EDX, 0x1                                         EAX=0000ADA4 ECX=77AE3804 EDX=0040AE55 EBX=1AA692E0 ESP=0018FE44 EBP=0018FF24 ESI=0040C6F6 EDI=0018FE48 EFLAG=00000286
0040ADAD	MOV      EAX, [EBP+0x0]                                   EAX=0000ADA4 ECX=77AE3804 EDX=0040AE57 EBX=1AA692E0 ESP=0018FE44 EBP=0018FF24 ESI=0040C6F6 EDI=0018FE48 EFLAG=00000286
0040ADB0	DEC      DL                                               EAX=09042C00 ECX=77AE3804 EDX=0040AE57 EBX=1AA692E0 ESP=0018FE44 EBP=0018FF24 ESI=0040C6F6 EDI=0018FE48 EFLAG=00000286
0040C14D	PUSHA                                                     EAX=09042C00 ECX=77AE3804 EDX=0040AE56 EBX=1AA692E0 ESP=0018FE44 EBP=0018FF24 ESI=0040C6F6 EDI=0018FE48 EFLAG=00000206
0040C14E	MOV      EDX, [EBP+0x4]                                   EAX=09042C00 ECX=77AE3804 EDX=0040AE56 EBX=1AA692E0 ESP=0018FE24 EBP=0018FF24 ESI=0040C6F6 EDI=0018FE48 EFLAG=00000206
0040C151	CALL     0x40a9f9                                         EAX=09042C00 ECX=77AE3804 EDX=FFFFFDFD EBX=1AA692E0 ESP=0018FE24 EBP=0018FF24 ESI=0040C6F6 EDI=0018FE48 EFLAG=00000206
0040A9F9	NOT      EAX                                              EAX=09042C00 ECX=77AE3804 EDX=FFFFFDFD EBX=1AA692E0 ESP=0018FE20 EBP=0018FF24 ESI=0040C6F6 EDI=0018FE48 EFLAG=00000206
0040A9FB	CMC                                                       EAX=F6FBD3FF ECX=77AE3804 EDX=FFFFFDFD EBX=1AA692E0 ESP=0018FE20 EBP=0018FF24 ESI=0040C6F6 EDI=0018FE48 EFLAG=00000206
0040A9FC	PUSH     ECX                                              EAX=F6FBD3FF ECX=77AE3804 EDX=FFFFFDFD EBX=1AA692E0 ESP=0018FE20 EBP=0018FF24 ESI=0040C6F6 EDI=0018FE48 EFLAG=00000207
0040A9FD	STC                                                       EAX=F6FBD3FF ECX=77AE3804 EDX=FFFFFDFD EBX=1AA692E0 ESP=0018FE1C EBP=0018FF24 ESI=0040C6F6 EDI=0018FE48 EFLAG=00000207
0040A9FE	NOT      EDX                                              EAX=F6FBD3FF ECX=77AE3804 EDX=FFFFFDFD EBX=1AA692E0 ESP=0018FE1C EBP=0018FF24 ESI=0040C6F6 EDI=0018FE48 EFLAG=00000207
0040AA00	CMC                                                       EAX=F6FBD3FF ECX=77AE3804 EDX=00000202 EBX=1AA692E0 ESP=0018FE1C EBP=0018FF24 ESI=0040C6F6 EDI=0018FE48 EFLAG=00000207
0040BD80	AND      EAX, EDX                                         EAX=F6FBD3FF ECX=77AE3804 EDX=00000202 EBX=1AA692E0 ESP=0018FE1C EBP=0018FF24 ESI=0040C6F6 EDI=0018FE48 EFLAG=00000206
0040BD82	CALL     0x40b402                                         EAX=00000202 ECX=77AE3804 EDX=00000202 EBX=1AA692E0 ESP=0018FE1C EBP=0018FF24 ESI=0040C6F6 EDI=0018FE48 EFLAG=00000202
0040A3AC	MOV      WORD [ESP+0x4], 0x9f8                            EAX=00000202 ECX=77AE3804 EDX=00000202 EBX=1AA692E0 ESP=0018FE18 EBP=0018FF24 ESI=0040C6F6 EDI=0018FE48 EFLAG=00000202
0040A3B3	MOV      [EBP+0x4], EAX                                   EAX=00000202 ECX=77AE3804 EDX=00000202 EBX=1AA692E0 ESP=0018FE18 EBP=0018FF24 ESI=0040C6F6 EDI=0018FE48 EFLAG=00000202
0040AF1A	PUSHF                                                     EAX=00000202 ECX=77AE3804 EDX=00000202 EBX=1AA692E0 ESP=0018FE18 EBP=0018FF24 ESI=0040C6F6 EDI=0018FE48 EFLAG=00000202
0040AF1B	POP      DWORD [ESP+0x2c]                                 EAX=00000202 ECX=77AE3804 EDX=00000202 EBX=1AA692E0 ESP=0018FE14 EBP=0018FF24 ESI=0040C6F6 EDI=0018FE48 EFLAG=00000202
0040AF1F	CALL     0x40ab63                                         EAX=00000202 ECX=77AE3804 EDX=00000202 EBX=1AA692E0 ESP=0018FE18 EBP=0018FF24 ESI=0040C6F6 EDI=0018FE48 EFLAG=00000202
0040AB63	MOV      BYTE [ESP+0x8], 0x9                              EAX=00000202 ECX=77AE3804 EDX=00000202 EBX=1AA692E0 ESP=0018FE14 EBP=0018FF24 ESI=0040C6F6 EDI=0018FE48 EFLAG=00000202
0040AB68	PUSH     DWORD [ESP+0x30]                                 EAX=00000202 ECX=77AE3804 EDX=00000202 EBX=1AA692E0 ESP=0018FE14 EBP=0018FF24 ESI=0040C6F6 EDI=0018FE48 EFLAG=00000202
0040AB6C	POP      DWORD [EBP+0x0]                                  EAX=00000202 ECX=77AE3804 EDX=00000202 EBX=1AA692E0 ESP=0018FE10 EBP=0018FF24 ESI=0040C6F6 EDI=0018FE48 EFLAG=00000202
0040AB6F	PUSH     EDI                                              EAX=00000202 ECX=77AE3804 EDX=00000202 EBX=1AA692E0 ESP=0018FE14 EBP=0018FF24 ESI=0040C6F6 EDI=0018FE48 EFLAG=00000202
0040AB70	PUSHF                                                     EAX=00000202 ECX=77AE3804 EDX=00000202 EBX=1AA692E0 ESP=0018FE10 EBP=0018FF24 ESI=0040C6F6 EDI=0018FE48 EFLAG=00000202
0040AB71	LEA      ESP, [ESP+0x3c]                                  EAX=00000202 ECX=77AE3804 EDX=00000202 EBX=1AA692E0 ESP=0018FE0C EBP=0018FF24 ESI=0040C6F6 EDI=0018FE48 EFLAG=00000202
0040BEFD	BSWAP    DX                                               EAX=00000202 ECX=77AE3804 EDX=00000202 EBX=1AA692E0 ESP=0018FE48 EBP=0018FF24 ESI=0040C6F6 EDI=0018FE48 EFLAG=00000202
0040BF00	RCL      DL, CL                                           EAX=00000202 ECX=77AE3804 EDX=00000000 EBX=1AA692E0 ESP=0018FE48 EBP=0018FF24 ESI=0040C6F6 EDI=0018FE48 EFLAG=00000202
0040BF02	PUSHA                                                     EAX=00000202 ECX=77AE3804 EDX=00000000 EBX=1AA692E0 ESP=0018FE48 EBP=0018FF24 ESI=0040C6F6 EDI=0018FE48 EFLAG=00000202
0040BF03	AND      EDX, 0xfdc85d80                                  EAX=00000202 ECX=77AE3804 EDX=00000000 EBX=1AA692E0 ESP=0018FE28 EBP=0018FF24 ESI=0040C6F6 EDI=0018FE48 EFLAG=00000202
0040BF09	MOV      AL, [ESI-0x1]                                    EAX=00000202 ECX=77AE3804 EDX=00000000 EBX=1AA692E0 ESP=0018FE28 EBP=0018FF24 ESI=0040C6F6 EDI=0018FE48 EFLAG=00000246
0040BF0C	DEC      DH                                               EAX=000002D8 ECX=77AE3804 EDX=00000000 EBX=1AA692E0 ESP=0018FE28 EBP=0018FF24 ESI=0040C6F6 EDI=0018FE48 EFLAG=00000246
0040BF0E	SUB      AL, BL                                           EAX=000002D8 ECX=77AE3804 EDX=0000FF00 EBX=1AA692E0 ESP=0018FE28 EBP=0018FF24 ESI=0040C6F6 EDI=0018FE48 EFLAG=00000296
0040BF10	PUSHF                                                     EAX=000002F8 ECX=77AE3804 EDX=0000FF00 EBX=1AA692E0 ESP=0018FE28 EBP=0018FF24 ESI=0040C6F6 EDI=0018FE48 EFLAG=00000283
0040BF11	BTC      DX, 0x4                                          EAX=000002F8 ECX=77AE3804 EDX=0000FF00 EBX=1AA692E0 ESP=0018FE24 EBP=0018FF24 ESI=0040C6F6 EDI=0018FE48 EFLAG=00000283
0040BF16	PUSH     ESP                                              EAX=000002F8 ECX=77AE3804 EDX=0000FF10 EBX=1AA692E0 ESP=0018FE24 EBP=0018FF24 ESI=0040C6F6 EDI=0018FE48 EFLAG=00000282
0040BF17	MOVZX    DX, AL                                           EAX=000002F8 ECX=77AE3804 EDX=0000FF10 EBX=1AA692E0 ESP=0018FE20 EBP=0018FF24 ESI=0040C6F6 EDI=0018FE48 EFLAG=00000282
0040BF1B	ROR      AL, 0x7                                          EAX=000002F8 ECX=77AE3804 EDX=000000F8 EBX=1AA692E0 ESP=0018FE20 EBP=0018FF24 ESI=0040C6F6 EDI=0018FE48 EFLAG=00000282
0040BF1E	ROL      DH, 0x3                                          EAX=000002F1 ECX=77AE3804 EDX=000000F8 EBX=1AA692E0 ESP=0018FE20 EBP=0018FF24 ESI=0040C6F6 EDI=0018FE48 EFLAG=00000283
0040BF21	SUB      AL, 0x30                                         EAX=000002F1 ECX=77AE3804 EDX=000000F8 EBX=1AA692E0 ESP=0018FE20 EBP=0018FF24 ESI=0040C6F6 EDI=0018FE48 EFLAG=00000282
0040BF23	SHR      DX, 0x9                                          EAX=000002C1 ECX=77AE3804 EDX=000000F8 EBX=1AA692E0 ESP=0018FE20 EBP=0018FF24 ESI=0040C6F6 EDI=0018FE48 EFLAG=00000282
0040BF27	XOR      AL, 0xce                                         EAX=000002C1 ECX=77AE3804 EDX=00000000 EBX=1AA692E0 ESP=0018FE20 EBP=0018FF24 ESI=0040C6F6 EDI=0018FE48 EFLAG=00000246
0040BF29	ADC      DL, 0xdb                                         EAX=0000020F ECX=77AE3804 EDX=00000000 EBX=1AA692E0 ESP=0018FE20 EBP=0018FF24 ESI=0040C6F6 EDI=0018FE48 EFLAG=00000206
0040BF2C	BT       EBX, EDI                                         EAX=0000020F ECX=77AE3804 EDX=000000DB EBX=1AA692E0 ESP=0018FE20 EBP=0018FF24 ESI=0040C6F6 EDI=0018FE48 EFLAG=00000286
0040BF2F	SETL     DH                                               EAX=0000020F ECX=77AE3804 EDX=000000DB EBX=1AA692E0 ESP=0018FE20 EBP=0018FF24 ESI=0040C6F6 EDI=0018FE48 EFLAG=00000286
0040BF32	SUB      BL, AL                                           EAX=0000020F ECX=77AE3804 EDX=000001DB EBX=1AA692E0 ESP=0018FE20 EBP=0018FF24 ESI=0040C6F6 EDI=0018FE48 EFLAG=00000286
0040BF34	STC                                                       EAX=0000020F ECX=77AE3804 EDX=000001DB EBX=1AA692D1 ESP=0018FE20 EBP=0018FF24 ESI=0040C6F6 EDI=0018FE48 EFLAG=00000296
0040BF35	MOVZX    EAX, AL                                          EAX=0000020F ECX=77AE3804 EDX=000001DB EBX=1AA692D1 ESP=0018FE20 EBP=0018FF24 ESI=0040C6F6 EDI=0018FE48 EFLAG=00000297
0040BF38	NOT      EDX                                              EAX=0000000F ECX=77AE3804 EDX=000001DB EBX=1AA692D1 ESP=0018FE20 EBP=0018FF24 ESI=0040C6F6 EDI=0018FE48 EFLAG=00000297
0040BF3A	BSF      EDX, EDI                                         EAX=0000000F ECX=77AE3804 EDX=FFFFFE24 EBX=1AA692D1 ESP=0018FE20 EBP=0018FF24 ESI=0040C6F6 EDI=0018FE48 EFLAG=00000297
0040BF3E	CMC                                                       EAX=0000000F ECX=77AE3804 EDX=FFFF0003 EBX=1AA692D1 ESP=0018FE20 EBP=0018FF24 ESI=0040C6F6 EDI=0018FE48 EFLAG=00000206
0040BF3F	SAL      DH, CL                                           EAX=0000000F ECX=77AE3804 EDX=FFFF0003 EBX=1AA692D1 ESP=0018FE20 EBP=0018FF24 ESI=0040C6F6 EDI=0018FE48 EFLAG=00000207
0040BF41	MOV      EDX, [EAX*4+0x40a51f]                            EAX=0000000F ECX=77AE3804 EDX=FFFF0003 EBX=1AA692D1 ESP=0018FE20 EBP=0018FF24 ESI=0040C6F6 EDI=0018FE48 EFLAG=00000246
0040BF48	TEST     EDX, 0xe75c2a09                                  EAX=0000000F ECX=77AE3804 EDX=2BFA6887 EBX=1AA692D1 ESP=0018FE20 EBP=0018FF24 ESI=0040C6F6 EDI=0018FE48 EFLAG=00000246
0040BF4E	TEST     BL, DL                                           EAX=0000000F ECX=77AE3804 EDX=2BFA6887 EBX=1AA692D1 ESP=0018FE20 EBP=0018FF24 ESI=0040C6F6 EDI=0018FE48 EFLAG=00000202
0040BF50	SUB      EDX, 0x2bb9b71b                                  EAX=0000000F ECX=77AE3804 EDX=2BFA6887 EBX=1AA692D1 ESP=0018FE20 EBP=0018FF24 ESI=0040C6F6 EDI=0018FE48 EFLAG=00000286
0040BF56	CALL     0x40bd78                                         EAX=0000000F ECX=77AE3804 EDX=0040B16C EBX=1AA692D1 ESP=0018FE20 EBP=0018FF24 ESI=0040C6F6 EDI=0018FE48 EFLAG=00000216
0040BD78	PUSH     EDX                                              EAX=0000000F ECX=77AE3804 EDX=0040B16C EBX=1AA692D1 ESP=0018FE1C EBP=0018FF24 ESI=0040C6F6 EDI=0018FE48 EFLAG=00000216
0040BD79	DEC      ESI                                              EAX=0000000F ECX=77AE3804 EDX=0040B16C EBX=1AA692D1 ESP=0018FE18 EBP=0018FF24 ESI=0040C6F6 EDI=0018FE48 EFLAG=00000216
0040BD7A	PUSHF                                                     EAX=0000000F ECX=77AE3804 EDX=0040B16C EBX=1AA692D1 ESP=0018FE18 EBP=0018FF24 ESI=0040C6F5 EDI=0018FE48 EFLAG=00000206
0040A91F	MOV      [ESP], DH                                        EAX=0000000F ECX=77AE3804 EDX=0040B16C EBX=1AA692D1 ESP=0018FE14 EBP=0018FF24 ESI=0040C6F5 EDI=0018FE48 EFLAG=00000206
0040A922	MOV      [ESP+0x30], EDX                                  EAX=0000000F ECX=77AE3804 EDX=0040B16C EBX=1AA692D1 ESP=0018FE14 EBP=0018FF24 ESI=0040C6F5 EDI=0018FE48 EFLAG=00000206
0040A926	MOV      [ESP], AL                                        EAX=0000000F ECX=77AE3804 EDX=0040B16C EBX=1AA692D1 ESP=0018FE14 EBP=0018FF24 ESI=0040C6F5 EDI=0018FE48 EFLAG=00000206
0040A929	PUSH     DWORD [ESP+0x30]                                 EAX=0000000F ECX=77AE3804 EDX=0040B16C EBX=1AA692D1 ESP=0018FE14 EBP=0018FF24 ESI=0040C6F5 EDI=0018FE48 EFLAG=00000206
0040A92D	RET      0x34                                             EAX=0000000F ECX=77AE3804 EDX=0040B16C EBX=1AA692D1 ESP=0018FE10 EBP=0018FF24 ESI=0040C6F5 EDI=0018FE48 EFLAG=00000206
0040B16C	CALL     0x40bb09                                         EAX=0000000F ECX=77AE3804 EDX=0040B16C EBX=1AA692D1 ESP=0018FE48 EBP=0018FF24 ESI=0040C6F5 EDI=0018FE48 EFLAG=00000206
0040BB09	SUB      DL, AH                                           EAX=0000000F ECX=77AE3804 EDX=0040B16C EBX=1AA692D1 ESP=0018FE44 EBP=0018FF24 ESI=0040C6F5 EDI=0018FE48 EFLAG=00000206
0040BB0B	MOV      AL, [ESI-0x1]                                    EAX=0000000F ECX=77AE3804 EDX=0040B16C EBX=1AA692D1 ESP=0018FE44 EBP=0018FF24 ESI=0040C6F5 EDI=0018FE48 EFLAG=00000206
0040BB0E	LEA      ESP, [ESP+0x4]                                   EAX=000000D8 ECX=77AE3804 EDX=0040B16C EBX=1AA692D1 ESP=0018FE44 EBP=0018FF24 ESI=0040C6F5 EDI=0018FE48 EFLAG=00000206
0040BB12	JNP      0x40bd9a                                         EAX=000000D8 ECX=77AE3804 EDX=0040B16C EBX=1AA692D1 ESP=0018FE48 EBP=0018FF24 ESI=0040C6F5 EDI=0018FE48 EFLAG=00000206
0040BB18	BSR      EDX, ECX                                         EAX=000000D8 ECX=77AE3804 EDX=0040B16C EBX=1AA692D1 ESP=0018FE48 EBP=0018FF24 ESI=0040C6F5 EDI=0018FE48 EFLAG=00000206
0040BB1B	ADD      AL, BL                                           EAX=000000D8 ECX=77AE3804 EDX=0000001E EBX=1AA692D1 ESP=0018FE48 EBP=0018FF24 ESI=0040C6F5 EDI=0018FE48 EFLAG=00000206
0040BB1D	PUSH     EDX                                              EAX=000000A9 ECX=77AE3804 EDX=0000001E EBX=1AA692D1 ESP=0018FE48 EBP=0018FF24 ESI=0040C6F5 EDI=0018FE48 EFLAG=00000287
0040BB1E	DEC      AL                                               EAX=000000A9 ECX=77AE3804 EDX=0000001E EBX=1AA692D1 ESP=0018FE44 EBP=0018FF24 ESI=0040C6F5 EDI=0018FE48 EFLAG=00000287
0040BB20	DEC      DH                                               EAX=000000A8 ECX=77AE3804 EDX=0000001E EBX=1AA692D1 ESP=0018FE44 EBP=0018FF24 ESI=0040C6F5 EDI=0018FE48 EFLAG=00000283
0040BB22	NEG      AL                                               EAX=000000A8 ECX=77AE3804 EDX=0000FF1E EBX=1AA692D1 ESP=0018FE44 EBP=0018FF24 ESI=0040C6F5 EDI=0018FE48 EFLAG=00000297
0040BB24	CALL     0x40b99f                                         EAX=00000058 ECX=77AE3804 EDX=0000FF1E EBX=1AA692D1 ESP=0018FE44 EBP=0018FF24 ESI=0040C6F5 EDI=0018FE48 EFLAG=00000213
0040B99F	BTC      EDX, 0xe                                         EAX=00000058 ECX=77AE3804 EDX=0000FF1E EBX=1AA692D1 ESP=0018FE40 EBP=0018FF24 ESI=0040C6F5 EDI=0018FE48 EFLAG=00000213
0040B9A3	MOVZX    EDX, DL                                          EAX=00000058 ECX=77AE3804 EDX=0000BF1E EBX=1AA692D1 ESP=0018FE40 EBP=0018FF24 ESI=0040C6F5 EDI=0018FE48 EFLAG=00000213
0040B9A6	CMC                                                       EAX=00000058 ECX=77AE3804 EDX=0000001E EBX=1AA692D1 ESP=0018FE40 EBP=0018FF24 ESI=0040C6F5 EDI=0018FE48 EFLAG=00000213
0040B9A7	ROR      AL, 0x1                                          EAX=00000058 ECX=77AE3804 EDX=0000001E EBX=1AA692D1 ESP=0018FE40 EBP=0018FF24 ESI=0040C6F5 EDI=0018FE48 EFLAG=00000212
0040B9A9	SBB      DX, 0x612a                                       EAX=0000002C ECX=77AE3804 EDX=0000001E EBX=1AA692D1 ESP=0018FE40 EBP=0018FF24 ESI=0040C6F5 EDI=0018FE48 EFLAG=00000212
0040B9AE	ADC      DL, DL                                           EAX=0000002C ECX=77AE3804 EDX=00009EF4 EBX=1AA692D1 ESP=0018FE40 EBP=0018FF24 ESI=0040C6F5 EDI=0018FE48 EFLAG=00000283
0040B9B0	ADD      DX, CX                                           EAX=0000002C ECX=77AE3804 EDX=00009EE9 EBX=1AA692D1 ESP=0018FE40 EBP=0018FF24 ESI=0040C6F5 EDI=0018FE48 EFLAG=00000283
0040B9B3	BSWAP    DX                                               EAX=0000002C ECX=77AE3804 EDX=0000D6ED EBX=1AA692D1 ESP=0018FE40 EBP=0018FF24 ESI=0040C6F5 EDI=0018FE48 EFLAG=00000286
0040B9B6	ADD      BL, AL                                           EAX=0000002C ECX=77AE3804 EDX=00000000 EBX=1AA692D1 ESP=0018FE40 EBP=0018FF24 ESI=0040C6F5 EDI=0018FE48 EFLAG=00000286
0040B9B8	AND      EDX, ESP                                         EAX=0000002C ECX=77AE3804 EDX=00000000 EBX=1AA692FD ESP=0018FE40 EBP=0018FF24 ESI=0040C6F5 EDI=0018FE48 EFLAG=00000282
0040B9BA	LEA      ESI, [ESI-0x1]                                   EAX=0000002C ECX=77AE3804 EDX=00000000 EBX=1AA692FD ESP=0018FE40 EBP=0018FF24 ESI=0040C6F5 EDI=0018FE48 EFLAG=00000246
0040B9BD	SHRD     DX, SP, CL                                       EAX=0000002C ECX=77AE3804 EDX=00000000 EBX=1AA692FD ESP=0018FE40 EBP=0018FF24 ESI=0040C6F4 EDI=0018FE48 EFLAG=00000246
0040B9C1	INC      DX                                               EAX=0000002C ECX=77AE3804 EDX=00000000 EBX=1AA692FD ESP=0018FE40 EBP=0018FF24 ESI=0040C6F4 EDI=0018FE48 EFLAG=00000246
0040B9C4	SBB      EDX, EDX                                         EAX=0000002C ECX=77AE3804 EDX=00000001 EBX=1AA692FD ESP=0018FE40 EBP=0018FF24 ESI=0040C6F4 EDI=0018FE48 EFLAG=00000202
0040B9C6	ADD      DX, 0x9dea                                       EAX=0000002C ECX=77AE3804 EDX=00000000 EBX=1AA692FD ESP=0018FE40 EBP=0018FF24 ESI=0040C6F4 EDI=0018FE48 EFLAG=00000246
0040B9CB	MOV      EDX, [EBP+0x0]                                   EAX=0000002C ECX=77AE3804 EDX=00009DEA EBX=1AA692FD ESP=0018FE40 EBP=0018FF24 ESI=0040C6F4 EDI=0018FE48 EFLAG=00000282
0040B9CE	PUSHA                                                     EAX=0000002C ECX=77AE3804 EDX=00000202 EBX=1AA692FD ESP=0018FE40 EBP=0018FF24 ESI=0040C6F4 EDI=0018FE48 EFLAG=00000282
0040B9CF	STC                                                       EAX=0000002C ECX=77AE3804 EDX=00000202 EBX=1AA692FD ESP=0018FE20 EBP=0018FF24 ESI=0040C6F4 EDI=0018FE48 EFLAG=00000282
0040B9D0	CALL     0x40c120                                         EAX=0000002C ECX=77AE3804 EDX=00000202 EBX=1AA692FD ESP=0018FE20 EBP=0018FF24 ESI=0040C6F4 EDI=0018FE48 EFLAG=00000283
0040B3B2	ADD      EBP, 0x4                                         EAX=0000002C ECX=77AE3804 EDX=00000202 EBX=1AA692FD ESP=0018FE1C EBP=0018FF24 ESI=0040C6F4 EDI=0018FE48 EFLAG=00000283
0040B3B5	CALL     0x40c167                                         EAX=0000002C ECX=77AE3804 EDX=00000202 EBX=1AA692FD ESP=0018FE1C EBP=0018FF28 ESI=0040C6F4 EDI=0018FE48 EFLAG=00000206
0040C167	MOV      [EAX+EDI], EDX                                   EAX=0000002C ECX=77AE3804 EDX=00000202 EBX=1AA692FD ESP=0018FE18 EBP=0018FF28 ESI=0040C6F4 EDI=0018FE48 EFLAG=00000206
0040C16A	MOV      WORD [ESP+0x4], 0x4a62                           EAX=0000002C ECX=77AE3804 EDX=00000202 EBX=1AA692FD ESP=0018FE18 EBP=0018FF28 ESI=0040C6F4 EDI=0018FE48 EFLAG=00000206
0040C171	MOV      [ESP], DH                                        EAX=0000002C ECX=77AE3804 EDX=00000202 EBX=1AA692FD ESP=0018FE18 EBP=0018FF28 ESI=0040C6F4 EDI=0018FE48 EFLAG=00000206
0040C174	PUSHF                                                     EAX=0000002C ECX=77AE3804 EDX=00000202 EBX=1AA692FD ESP=0018FE18 EBP=0018FF28 ESI=0040C6F4 EDI=0018FE48 EFLAG=00000206
0040C175	PUSHF                                                     EAX=0000002C ECX=77AE3804 EDX=00000202 EBX=1AA692FD ESP=0018FE14 EBP=0018FF28 ESI=0040C6F4 EDI=0018FE48 EFLAG=00000206
0040C176	LEA      ESP, [ESP+0x38]                                  EAX=0000002C ECX=77AE3804 EDX=00000202 EBX=1AA692FD ESP=0018FE10 EBP=0018FF28 ESI=0040C6F4 EDI=0018FE48 EFLAG=00000206
0040BEFD	BSWAP    DX                                               EAX=0000002C ECX=77AE3804 EDX=00000202 EBX=1AA692FD ESP=0018FE48 EBP=0018FF28 ESI=0040C6F4 EDI=0018FE48 EFLAG=00000206
0040BF00	RCL      DL, CL                                           EAX=0000002C ECX=77AE3804 EDX=00000000 EBX=1AA692FD ESP=0018FE48 EBP=0018FF28 ESI=0040C6F4 EDI=0018FE48 EFLAG=00000206
0040BF02	PUSHA                                                     EAX=0000002C ECX=77AE3804 EDX=00000000 EBX=1AA692FD ESP=0018FE48 EBP=0018FF28 ESI=0040C6F4 EDI=0018FE48 EFLAG=00000206
0040BF03	AND      EDX, 0xfdc85d80                                  EAX=0000002C ECX=77AE3804 EDX=00000000 EBX=1AA692FD ESP=0018FE28 EBP=0018FF28 ESI=0040C6F4 EDI=0018FE48 EFLAG=00000206
0040BF09	MOV      AL, [ESI-0x1]                                    EAX=0000002C ECX=77AE3804 EDX=00000000 EBX=1AA692FD ESP=0018FE28 EBP=0018FF28 ESI=0040C6F4 EDI=0018FE48 EFLAG=00000246
0040BF0C	DEC      DH                                               EAX=0000005A ECX=77AE3804 EDX=00000000 EBX=1AA692FD ESP=0018FE28 EBP=0018FF28 ESI=0040C6F4 EDI=0018FE48 EFLAG=00000246
0040BF0E	SUB      AL, BL                                           EAX=0000005A ECX=77AE3804 EDX=0000FF00 EBX=1AA692FD ESP=0018FE28 EBP=0018FF28 ESI=0040C6F4 EDI=0018FE48 EFLAG=00000296
0040BF10	PUSHF                                                     EAX=0000005D ECX=77AE3804 EDX=0000FF00 EBX=1AA692FD ESP=0018FE28 EBP=0018FF28 ESI=0040C6F4 EDI=0018FE48 EFLAG=00000213
0040BF11	BTC      DX, 0x4                                          EAX=0000005D ECX=77AE3804 EDX=0000FF00 EBX=1AA692FD ESP=0018FE24 EBP=0018FF28 ESI=0040C6F4 EDI=0018FE48 EFLAG=00000213
0040BF16	PUSH     ESP                                              EAX=0000005D ECX=77AE3804 EDX=0000FF10 EBX=1AA692FD ESP=0018FE24 EBP=0018FF28 ESI=0040C6F4 EDI=0018FE48 EFLAG=00000212
0040BF17	MOVZX    DX, AL                                           EAX=0000005D ECX=77AE3804 EDX=0000FF10 EBX=1AA692FD ESP=0018FE20 EBP=0018FF28 ESI=0040C6F4 EDI=0018FE48 EFLAG=00000212
0040BF1B	ROR      AL, 0x7                                          EAX=0000005D ECX=77AE3804 EDX=0000005D EBX=1AA692FD ESP=0018FE20 EBP=0018FF28 ESI=0040C6F4 EDI=0018FE48 EFLAG=00000212
0040BF1E	ROL      DH, 0x3                                          EAX=000000BA ECX=77AE3804 EDX=0000005D EBX=1AA692FD ESP=0018FE20 EBP=0018FF28 ESI=0040C6F4 EDI=0018FE48 EFLAG=00000A13
0040BF21	SUB      AL, 0x30                                         EAX=000000BA ECX=77AE3804 EDX=0000005D EBX=1AA692FD ESP=0018FE20 EBP=0018FF28 ESI=0040C6F4 EDI=0018FE48 EFLAG=00000212
0040BF23	SHR      DX, 0x9                                          EAX=0000008A ECX=77AE3804 EDX=0000005D EBX=1AA692FD ESP=0018FE20 EBP=0018FF28 ESI=0040C6F4 EDI=0018FE48 EFLAG=00000282
0040BF27	XOR      AL, 0xce                                         EAX=0000008A ECX=77AE3804 EDX=00000000 EBX=1AA692FD ESP=0018FE20 EBP=0018FF28 ESI=0040C6F4 EDI=0018FE48 EFLAG=00000246
0040BF29	ADC      DL, 0xdb                                         EAX=00000044 ECX=77AE3804 EDX=00000000 EBX=1AA692FD ESP=0018FE20 EBP=0018FF28 ESI=0040C6F4 EDI=0018FE48 EFLAG=00000206
0040BF2C	BT       EBX, EDI                                         EAX=00000044 ECX=77AE3804 EDX=000000DB EBX=1AA692FD ESP=0018FE20 EBP=0018FF28 ESI=0040C6F4 EDI=0018FE48 EFLAG=00000286
0040BF2F	SETL     DH                                               EAX=00000044 ECX=77AE3804 EDX=000000DB EBX=1AA692FD ESP=0018FE20 EBP=0018FF28 ESI=0040C6F4 EDI=0018FE48 EFLAG=00000286
0040BF32	SUB      BL, AL                                           EAX=00000044 ECX=77AE3804 EDX=000001DB EBX=1AA692FD ESP=0018FE20 EBP=0018FF28 ESI=0040C6F4 EDI=0018FE48 EFLAG=00000286
0040BF34	STC                                                       EAX=00000044 ECX=77AE3804 EDX=000001DB EBX=1AA692B9 ESP=0018FE20 EBP=0018FF28 ESI=0040C6F4 EDI=0018FE48 EFLAG=00000282
0040BF35	MOVZX    EAX, AL                                          EAX=00000044 ECX=77AE3804 EDX=000001DB EBX=1AA692B9 ESP=0018FE20 EBP=0018FF28 ESI=0040C6F4 EDI=0018FE48 EFLAG=00000283
0040BF38	NOT      EDX                                              EAX=00000044 ECX=77AE3804 EDX=000001DB EBX=1AA692B9 ESP=0018FE20 EBP=0018FF28 ESI=0040C6F4 EDI=0018FE48 EFLAG=00000283
0040BF3A	BSF      EDX, EDI                                         EAX=00000044 ECX=77AE3804 EDX=FFFFFE24 EBX=1AA692B9 ESP=0018FE20 EBP=0018FF28 ESI=0040C6F4 EDI=0018FE48 EFLAG=00000283
0040BF3E	CMC                                                       EAX=00000044 ECX=77AE3804 EDX=FFFF0003 EBX=1AA692B9 ESP=0018FE20 EBP=0018FF28 ESI=0040C6F4 EDI=0018FE48 EFLAG=00000206
0040BF3F	SAL      DH, CL                                           EAX=00000044 ECX=77AE3804 EDX=FFFF0003 EBX=1AA692B9 ESP=0018FE20 EBP=0018FF28 ESI=0040C6F4 EDI=0018FE48 EFLAG=00000207
0040BF41	MOV      EDX, [EAX*4+0x40a51f]                            EAX=00000044 ECX=77AE3804 EDX=FFFF0003 EBX=1AA692B9 ESP=0018FE20 EBP=0018FF28 ESI=0040C6F4 EDI=0018FE48 EFLAG=00000246
0040BF48	TEST     EDX, 0xe75c2a09                                  EAX=00000044 ECX=77AE3804 EDX=2BFA6557 EBX=1AA692B9 ESP=0018FE20 EBP=0018FF28 ESI=0040C6F4 EDI=0018FE48 EFLAG=00000246
0040BF4E	TEST     BL, DL                                           EAX=00000044 ECX=77AE3804 EDX=2BFA6557 EBX=1AA692B9 ESP=0018FE20 EBP=0018FF28 ESI=0040C6F4 EDI=0018FE48 EFLAG=00000202
0040BF50	SUB      EDX, 0x2bb9b71b                                  EAX=00000044 ECX=77AE3804 EDX=2BFA6557 EBX=1AA692B9 ESP=0018FE20 EBP=0018FF28 ESI=0040C6F4 EDI=0018FE48 EFLAG=00000206
0040BF56	CALL     0x40bd78                                         EAX=00000044 ECX=77AE3804 EDX=0040AE3C EBX=1AA692B9 ESP=0018FE20 EBP=0018FF28 ESI=0040C6F4 EDI=0018FE48 EFLAG=00000216
0040BD78	PUSH     EDX                                              EAX=00000044 ECX=77AE3804 EDX=0040AE3C EBX=1AA692B9 ESP=0018FE1C EBP=0018FF28 ESI=0040C6F4 EDI=0018FE48 EFLAG=00000216
0040BD79	DEC      ESI                                              EAX=00000044 ECX=77AE3804 EDX=0040AE3C EBX=1AA692B9 ESP=0018FE18 EBP=0018FF28 ESI=0040C6F4 EDI=0018FE48 EFLAG=00000216
0040BD7A	PUSHF                                                     EAX=00000044 ECX=77AE3804 EDX=0040AE3C EBX=1AA692B9 ESP=0018FE18 EBP=0018FF28 ESI=0040C6F3 EDI=0018FE48 EFLAG=00000206
0040A91F	MOV      [ESP], DH                                        EAX=00000044 ECX=77AE3804 EDX=0040AE3C EBX=1AA692B9 ESP=0018FE14 EBP=0018FF28 ESI=0040C6F3 EDI=0018FE48 EFLAG=00000206
0040A922	MOV      [ESP+0x30], EDX                                  EAX=00000044 ECX=77AE3804 EDX=0040AE3C EBX=1AA692B9 ESP=0018FE14 EBP=0018FF28 ESI=0040C6F3 EDI=0018FE48 EFLAG=00000206
0040A926	MOV      [ESP], AL                                        EAX=00000044 ECX=77AE3804 EDX=0040AE3C EBX=1AA692B9 ESP=0018FE14 EBP=0018FF28 ESI=0040C6F3 EDI=0018FE48 EFLAG=00000206
0040A929	PUSH     DWORD [ESP+0x30]                                 EAX=00000044 ECX=77AE3804 EDX=0040AE3C EBX=1AA692B9 ESP=0018FE14 EBP=0018FF28 ESI=0040C6F3 EDI=0018FE48 EFLAG=00000206
0040A92D	RET      0x34                                             EAX=00000044 ECX=77AE3804 EDX=0040AE3C EBX=1AA692B9 ESP=0018FE10 EBP=0018FF28 ESI=0040C6F3 EDI=0018FE48 EFLAG=00000206
0040AE3C	SAR      AL, CL                                           EAX=00000044 ECX=77AE3804 EDX=0040AE3C EBX=1AA692B9 ESP=0018FE48 EBP=0018FF28 ESI=0040C6F3 EDI=0018FE48 EFLAG=00000206
0040AE3E	MOV      EAX, [ESI-0x4]                                   EAX=00000004 ECX=77AE3804 EDX=0040AE3C EBX=1AA692B9 ESP=0018FE48 EBP=0018FF28 ESI=0040C6F3 EDI=0018FE48 EFLAG=00000202
0040AE41	PUSHA                                                     EAX=A1AD25CF ECX=77AE3804 EDX=0040AE3C EBX=1AA692B9 ESP=0018FE48 EBP=0018FF28 ESI=0040C6F3 EDI=0018FE48 EFLAG=00000202
0040B3CF	PUSHA                                                     EAX=A1AD25CF ECX=77AE3804 EDX=0040AE3C EBX=1AA692B9 ESP=0018FE28 EBP=0018FF28 ESI=0040C6F3 EDI=0018FE48 EFLAG=00000202
0040B3D0	CALL     0x40c0c5                                         EAX=A1AD25CF ECX=77AE3804 EDX=0040AE3C EBX=1AA692B9 ESP=0018FE08 EBP=0018FF28 ESI=0040C6F3 EDI=0018FE48 EFLAG=00000202
0040C0C5	BSWAP    EAX                                              EAX=A1AD25CF ECX=77AE3804 EDX=0040AE3C EBX=1AA692B9 ESP=0018FE04 EBP=0018FF28 ESI=0040C6F3 EDI=0018FE48 EFLAG=00000202
0040C0C7	TEST     AL, DL                                           EAX=CF25ADA1 ECX=77AE3804 EDX=0040AE3C EBX=1AA692B9 ESP=0018FE04 EBP=0018FF28 ESI=0040C6F3 EDI=0018FE48 EFLAG=00000202
0040C0C9	TEST     AL, DH                                           EAX=CF25ADA1 ECX=77AE3804 EDX=0040AE3C EBX=1AA692B9 ESP=0018FE04 EBP=0018FF28 ESI=0040C6F3 EDI=0018FE48 EFLAG=00000202
0040C0CB	XOR      EAX, EBX                                         EAX=CF25ADA1 ECX=77AE3804 EDX=0040AE3C EBX=1AA692B9 ESP=0018FE04 EBP=0018FF28 ESI=0040C6F3 EDI=0018FE48 EFLAG=00000286
0040C0CD	TEST     DH, AL                                           EAX=D5833F18 ECX=77AE3804 EDX=0040AE3C EBX=1AA692B9 ESP=0018FE04 EBP=0018FF28 ESI=0040C6F3 EDI=0018FE48 EFLAG=00000286
0040C0CF	STC                                                       EAX=D5833F18 ECX=77AE3804 EDX=0040AE3C EBX=1AA692B9 ESP=0018FE04 EBP=0018FF28 ESI=0040C6F3 EDI=0018FE48 EFLAG=00000202
0040C0D0	NOT      EAX                                              EAX=D5833F18 ECX=77AE3804 EDX=0040AE3C EBX=1AA692B9 ESP=0018FE04 EBP=0018FF28 ESI=0040C6F3 EDI=0018FE48 EFLAG=00000203
0040C0D2	PUSHF                                                     EAX=2A7CC0E7 ECX=77AE3804 EDX=0040AE3C EBX=1AA692B9 ESP=0018FE04 EBP=0018FF28 ESI=0040C6F3 EDI=0018FE48 EFLAG=00000203
0040C0D3	TEST     DL, CL                                           EAX=2A7CC0E7 ECX=77AE3804 EDX=0040AE3C EBX=1AA692B9 ESP=0018FE00 EBP=0018FF28 ESI=0040C6F3 EDI=0018FE48 EFLAG=00000203
0040C0D5	CMC                                                       EAX=2A7CC0E7 ECX=77AE3804 EDX=0040AE3C EBX=1AA692B9 ESP=0018FE00 EBP=0018FF28 ESI=0040C6F3 EDI=0018FE48 EFLAG=00000202
0040C0D6	SUB      EAX, 0x4e8d70e8                                  EAX=2A7CC0E7 ECX=77AE3804 EDX=0040AE3C EBX=1AA692B9 ESP=0018FE00 EBP=0018FF28 ESI=0040C6F3 EDI=0018FE48 EFLAG=00000203
0040C0DB	CALL     0x40c358                                         EAX=DBEF4FFF ECX=77AE3804 EDX=0040AE3C EBX=1AA692B9 ESP=0018FE00 EBP=0018FF28 ESI=0040C6F3 EDI=0018FE48 EFLAG=00000297
0040C358	ROL      EAX, 0x1e                                        EAX=DBEF4FFF ECX=77AE3804 EDX=0040AE3C EBX=1AA692B9 ESP=0018FDFC EBP=0018FF28 ESI=0040C6F3 EDI=0018FE48 EFLAG=00000297
0040B4FA	CALL     0x40c30e                                         EAX=F6FBD3FF ECX=77AE3804 EDX=0040AE3C EBX=1AA692B9 ESP=0018FDFC EBP=0018FF28 ESI=0040C6F3 EDI=0018FE48 EFLAG=00000297
0040C30E	STC                                                       EAX=F6FBD3FF ECX=77AE3804 EDX=0040AE3C EBX=1AA692B9 ESP=0018FDF8 EBP=0018FF28 ESI=0040C6F3 EDI=0018FE48 EFLAG=00000297
0040C30F	ADD      ESI, -0x4                                        EAX=F6FBD3FF ECX=77AE3804 EDX=0040AE3C EBX=1AA692B9 ESP=0018FDF8 EBP=0018FF28 ESI=0040C6F3 EDI=0018FE48 EFLAG=00000297
0040C312	STC                                                       EAX=F6FBD3FF ECX=77AE3804 EDX=0040AE3C EBX=1AA692B9 ESP=0018FDF8 EBP=0018FF28 ESI=0040C6EF EDI=0018FE48 EFLAG=00000203
0040C313	XOR      EBX, EAX                                         EAX=F6FBD3FF ECX=77AE3804 EDX=0040AE3C EBX=1AA692B9 ESP=0018FDF8 EBP=0018FF28 ESI=0040C6EF EDI=0018FE48 EFLAG=00000203
0040C315	STC                                                       EAX=F6FBD3FF ECX=77AE3804 EDX=0040AE3C EBX=EC5D4146 ESP=0018FDF8 EBP=0018FF28 ESI=0040C6EF EDI=0018FE48 EFLAG=00000282
0040C316	CALL     0x40bbd4                                         EAX=F6FBD3FF ECX=77AE3804 EDX=0040AE3C EBX=EC5D4146 ESP=0018FDF8 EBP=0018FF28 ESI=0040C6EF EDI=0018FE48 EFLAG=00000283
0040BBD4	CMP      BL, CL                                           EAX=F6FBD3FF ECX=77AE3804 EDX=0040AE3C EBX=EC5D4146 ESP=0018FDF4 EBP=0018FF28 ESI=0040C6EF EDI=0018FE48 EFLAG=00000283
0040BBD6	CMP      DH, 0xaa                                         EAX=F6FBD3FF ECX=77AE3804 EDX=0040AE3C EBX=EC5D4146 ESP=0018FDF4 EBP=0018FF28 ESI=0040C6EF EDI=0018FE48 EFLAG=00000206
0040BBD9	SUB      EBP, 0x4                                         EAX=F6FBD3FF ECX=77AE3804 EDX=0040AE3C EBX=EC5D4146 ESP=0018FDF4 EBP=0018FF28 ESI=0040C6EF EDI=0018FE48 EFLAG=00000202
0040BBDC	CALL     0x40b70a                                         EAX=F6FBD3FF ECX=77AE3804 EDX=0040AE3C EBX=EC5D4146 ESP=0018FDF4 EBP=0018FF24 ESI=0040C6EF EDI=0018FE48 EFLAG=00000206
0040B449	MOV      [ESP+0xc], CH                                    EAX=F6FBD3FF ECX=77AE3804 EDX=0040AE3C EBX=EC5D4146 ESP=0018FDF0 EBP=0018FF24 ESI=0040C6EF EDI=0018FE48 EFLAG=00000206
0040B44D	MOV      [EBP+0x0], EAX                                   EAX=F6FBD3FF ECX=77AE3804 EDX=0040AE3C EBX=EC5D4146 ESP=0018FDF0 EBP=0018FF24 ESI=0040C6EF EDI=0018FE48 EFLAG=00000206
0040B450	MOV      BYTE [ESP], 0x39                                 EAX=F6FBD3FF ECX=77AE3804 EDX=0040AE3C EBX=EC5D4146 ESP=0018FDF0 EBP=0018FF24 ESI=0040C6EF EDI=0018FE48 EFLAG=00000206
0040B454	LEA      ESP, [ESP+0x58]                                  EAX=F6FBD3FF ECX=77AE3804 EDX=0040AE3C EBX=EC5D4146 ESP=0018FDF0 EBP=0018FF24 ESI=0040C6EF EDI=0018FE48 EFLAG=00000206
0040C360	TEST     DH, 0x76                                         EAX=F6FBD3FF ECX=77AE3804 EDX=0040AE3C EBX=EC5D4146 ESP=0018FE48 EBP=0018FF24 ESI=0040C6EF EDI=0018FE48 EFLAG=00000206
0040C363	LEA      EAX, [EDI+0x50]                                  EAX=F6FBD3FF ECX=77AE3804 EDX=0040AE3C EBX=EC5D4146 ESP=0018FE48 EBP=0018FF24 ESI=0040C6EF EDI=0018FE48 EFLAG=00000202
0040C366	PUSH     DWORD 0xa76b4735                                 EAX=0018FE98 ECX=77AE3804 EDX=0040AE3C EBX=EC5D4146 ESP=0018FE48 EBP=0018FF24 ESI=0040C6EF EDI=0018FE48 EFLAG=00000202
0040C36B	STC                                                       EAX=0018FE98 ECX=77AE3804 EDX=0040AE3C EBX=EC5D4146 ESP=0018FE44 EBP=0018FF24 ESI=0040C6EF EDI=0018FE48 EFLAG=00000202
0040C36C	CMP      EBP, EAX                                         EAX=0018FE98 ECX=77AE3804 EDX=0040AE3C EBX=EC5D4146 ESP=0018FE44 EBP=0018FF24 ESI=0040C6EF EDI=0018FE48 EFLAG=00000203
0040C36E	PUSH     DWORD 0xbe8fd443                                 EAX=0018FE98 ECX=77AE3804 EDX=0040AE3C EBX=EC5D4146 ESP=0018FE44 EBP=0018FF24 ESI=0040C6EF EDI=0018FE48 EFLAG=00000212
0040C373	LEA      ESP, [ESP+0x8]                                   EAX=0018FE98 ECX=77AE3804 EDX=0040AE3C EBX=EC5D4146 ESP=0018FE40 EBP=0018FF24 ESI=0040C6EF EDI=0018FE48 EFLAG=00000212
0040C377	JA       0x40befd                                         EAX=0018FE98 ECX=77AE3804 EDX=0040AE3C EBX=EC5D4146 ESP=0018FE48 EBP=0018FF24 ESI=0040C6EF EDI=0018FE48 EFLAG=00000212
0040BEFD	BSWAP    DX                                               EAX=0018FE98 ECX=77AE3804 EDX=0040AE3C EBX=EC5D4146 ESP=0018FE48 EBP=0018FF24 ESI=0040C6EF EDI=0018FE48 EFLAG=00000212
0040BF00	RCL      DL, CL                                           EAX=0018FE98 ECX=77AE3804 EDX=00400000 EBX=EC5D4146 ESP=0018FE48 EBP=0018FF24 ESI=0040C6EF EDI=0018FE48 EFLAG=00000212
0040BF02	PUSHA                                                     EAX=0018FE98 ECX=77AE3804 EDX=00400000 EBX=EC5D4146 ESP=0018FE48 EBP=0018FF24 ESI=0040C6EF EDI=0018FE48 EFLAG=00000212
0040BF03	AND      EDX, 0xfdc85d80                                  EAX=0018FE98 ECX=77AE3804 EDX=00400000 EBX=EC5D4146 ESP=0018FE28 EBP=0018FF24 ESI=0040C6EF EDI=0018FE48 EFLAG=00000212
0040BF09	MOV      AL, [ESI-0x1]                                    EAX=0018FE98 ECX=77AE3804 EDX=00400000 EBX=EC5D4146 ESP=0018FE28 EBP=0018FF24 ESI=0040C6EF EDI=0018FE48 EFLAG=00000206
0040BF0C	DEC      DH                                               EAX=0018FE7E ECX=77AE3804 EDX=00400000 EBX=EC5D4146 ESP=0018FE28 EBP=0018FF24 ESI=0040C6EF EDI=0018FE48 EFLAG=00000206
0040BF0E	SUB      AL, BL                                           EAX=0018FE7E ECX=77AE3804 EDX=0040FF00 EBX=EC5D4146 ESP=0018FE28 EBP=0018FF24 ESI=0040C6EF EDI=0018FE48 EFLAG=00000296
0040BF10	PUSHF                                                     EAX=0018FE38 ECX=77AE3804 EDX=0040FF00 EBX=EC5D4146 ESP=0018FE28 EBP=0018FF24 ESI=0040C6EF EDI=0018FE48 EFLAG=00000202
0040BF11	BTC      DX, 0x4                                          EAX=0018FE38 ECX=77AE3804 EDX=0040FF00 EBX=EC5D4146 ESP=0018FE24 EBP=0018FF24 ESI=0040C6EF EDI=0018FE48 EFLAG=00000202
0040BF16	PUSH     ESP                                              EAX=0018FE38 ECX=77AE3804 EDX=0040FF10 EBX=EC5D4146 ESP=0018FE24 EBP=0018FF24 ESI=0040C6EF EDI=0018FE48 EFLAG=00000202
0040BF17	MOVZX    DX, AL                                           EAX=0018FE38 ECX=77AE3804 EDX=0040FF10 EBX=EC5D4146 ESP=0018FE20 EBP=0018FF24 ESI=0040C6EF EDI=0018FE48 EFLAG=00000202
0040BF1B	ROR      AL, 0x7                                          EAX=0018FE38 ECX=77AE3804 EDX=00400038 EBX=EC5D4146 ESP=0018FE20 EBP=0018FF24 ESI=0040C6EF EDI=0018FE48 EFLAG=00000202
0040BF1E	ROL      DH, 0x3                                          EAX=0018FE70 ECX=77AE3804 EDX=00400038 EBX=EC5D4146 ESP=0018FE20 EBP=0018FF24 ESI=0040C6EF EDI=0018FE48 EFLAG=00000A02
0040BF21	SUB      AL, 0x30                                         EAX=0018FE70 ECX=77AE3804 EDX=00400038 EBX=EC5D4146 ESP=0018FE20 EBP=0018FF24 ESI=0040C6EF EDI=0018FE48 EFLAG=00000202
0040BF23	SHR      DX, 0x9                                          EAX=0018FE40 ECX=77AE3804 EDX=00400038 EBX=EC5D4146 ESP=0018FE20 EBP=0018FF24 ESI=0040C6EF EDI=0018FE48 EFLAG=00000202
0040BF27	XOR      AL, 0xce                                         EAX=0018FE40 ECX=77AE3804 EDX=00400000 EBX=EC5D4146 ESP=0018FE20 EBP=0018FF24 ESI=0040C6EF EDI=0018FE48 EFLAG=00000246
0040BF29	ADC      DL, 0xdb                                         EAX=0018FE8E ECX=77AE3804 EDX=00400000 EBX=EC5D4146 ESP=0018FE20 EBP=0018FF24 ESI=0040C6EF EDI=0018FE48 EFLAG=00000286
0040BF2C	BT       EBX, EDI                                         EAX=0018FE8E ECX=77AE3804 EDX=004000DB EBX=EC5D4146 ESP=0018FE20 EBP=0018FF24 ESI=0040C6EF EDI=0018FE48 EFLAG=00000286
0040BF2F	SETL     DH                                               EAX=0018FE8E ECX=77AE3804 EDX=004000DB EBX=EC5D4146 ESP=0018FE20 EBP=0018FF24 ESI=0040C6EF EDI=0018FE48 EFLAG=00000287
0040BF32	SUB      BL, AL                                           EAX=0018FE8E ECX=77AE3804 EDX=004001DB EBX=EC5D4146 ESP=0018FE20 EBP=0018FF24 ESI=0040C6EF EDI=0018FE48 EFLAG=00000287
0040BF34	STC                                                       EAX=0018FE8E ECX=77AE3804 EDX=004001DB EBX=EC5D41B8 ESP=0018FE20 EBP=0018FF24 ESI=0040C6EF EDI=0018FE48 EFLAG=00000A97
0040BF35	MOVZX    EAX, AL                                          EAX=0018FE8E ECX=77AE3804 EDX=004001DB EBX=EC5D41B8 ESP=0018FE20 EBP=0018FF24 ESI=0040C6EF EDI=0018FE48 EFLAG=00000A97
0040BF38	NOT      EDX                                              EAX=0000008E ECX=77AE3804 EDX=004001DB EBX=EC5D41B8 ESP=0018FE20 EBP=0018FF24 ESI=0040C6EF EDI=0018FE48 EFLAG=00000A97
0040BF3A	BSF      EDX, EDI                                         EAX=0000008E ECX=77AE3804 EDX=FFBFFE24 EBX=EC5D41B8 ESP=0018FE20 EBP=0018FF24 ESI=0040C6EF EDI=0018FE48 EFLAG=00000A97
0040BF3E	CMC                                                       EAX=0000008E ECX=77AE3804 EDX=FFBF0003 EBX=EC5D41B8 ESP=0018FE20 EBP=0018FF24 ESI=0040C6EF EDI=0018FE48 EFLAG=00000206
0040BF3F	SAL      DH, CL                                           EAX=0000008E ECX=77AE3804 EDX=FFBF0003 EBX=EC5D41B8 ESP=0018FE20 EBP=0018FF24 ESI=0040C6EF EDI=0018FE48 EFLAG=00000207
0040BF41	MOV      EDX, [EAX*4+0x40a51f]                            EAX=0000008E ECX=77AE3804 EDX=FFBF0003 EBX=EC5D41B8 ESP=0018FE20 EBP=0018FF24 ESI=0040C6EF EDI=0018FE48 EFLAG=00000246
0040BF48	TEST     EDX, 0xe75c2a09                                  EAX=0000008E ECX=77AE3804 EDX=2BFA7AAA EBX=EC5D41B8 ESP=0018FE20 EBP=0018FF24 ESI=0040C6EF EDI=0018FE48 EFLAG=00000246
0040BF4E	TEST     BL, DL                                           EAX=0000008E ECX=77AE3804 EDX=2BFA7AAA EBX=EC5D41B8 ESP=0018FE20 EBP=0018FF24 ESI=0040C6EF EDI=0018FE48 EFLAG=00000202
0040BF50	SUB      EDX, 0x2bb9b71b                                  EAX=0000008E ECX=77AE3804 EDX=2BFA7AAA EBX=EC5D41B8 ESP=0018FE20 EBP=0018FF24 ESI=0040C6EF EDI=0018FE48 EFLAG=00000282
0040BF56	CALL     0x40bd78                                         EAX=0000008E ECX=77AE3804 EDX=0040C38F EBX=EC5D41B8 ESP=0018FE20 EBP=0018FF24 ESI=0040C6EF EDI=0018FE48 EFLAG=00000212
0040BD78	PUSH     EDX                                              EAX=0000008E ECX=77AE3804 EDX=0040C38F EBX=EC5D41B8 ESP=0018FE1C EBP=0018FF24 ESI=0040C6EF EDI=0018FE48 EFLAG=00000212
0040BD79	DEC      ESI                                              EAX=0000008E ECX=77AE3804 EDX=0040C38F EBX=EC5D41B8 ESP=0018FE18 EBP=0018FF24 ESI=0040C6EF EDI=0018FE48 EFLAG=00000212
0040BD7A	PUSHF                                                     EAX=0000008E ECX=77AE3804 EDX=0040C38F EBX=EC5D41B8 ESP=0018FE18 EBP=0018FF24 ESI=0040C6EE EDI=0018FE48 EFLAG=00000206
0040A91F	MOV      [ESP], DH                                        EAX=0000008E ECX=77AE3804 EDX=0040C38F EBX=EC5D41B8 ESP=0018FE14 EBP=0018FF24 ESI=0040C6EE EDI=0018FE48 EFLAG=00000206
0040A922	MOV      [ESP+0x30], EDX                                  EAX=0000008E ECX=77AE3804 EDX=0040C38F EBX=EC5D41B8 ESP=0018FE14 EBP=0018FF24 ESI=0040C6EE EDI=0018FE48 EFLAG=00000206
0040A926	MOV      [ESP], AL                                        EAX=0000008E ECX=77AE3804 EDX=0040C38F EBX=EC5D41B8 ESP=0018FE14 EBP=0018FF24 ESI=0040C6EE EDI=0018FE48 EFLAG=00000206
0040A929	PUSH     DWORD [ESP+0x30]                                 EAX=0000008E ECX=77AE3804 EDX=0040C38F EBX=EC5D41B8 ESP=0018FE14 EBP=0018FF24 ESI=0040C6EE EDI=0018FE48 EFLAG=00000206
0040A92D	RET      0x34                                             EAX=0000008E ECX=77AE3804 EDX=0040C38F EBX=EC5D41B8 ESP=0018FE10 EBP=0018FF24 ESI=0040C6EE EDI=0018FE48 EFLAG=00000206
0040C38F	BT       BX, BP                                           EAX=0000008E ECX=77AE3804 EDX=0040C38F EBX=EC5D41B8 ESP=0018FE48 EBP=0018FF24 ESI=0040C6EE EDI=0018FE48 EFLAG=00000206
0040C393	MOV      DH, CH                                           EAX=0000008E ECX=77AE3804 EDX=0040C38F EBX=EC5D41B8 ESP=0018FE48 EBP=0018FF24 ESI=0040C6EE EDI=0018FE48 EFLAG=00000207
0040C395	MOVZX    EAX, BYTE [ESI-0x1]                              EAX=0000008E ECX=77AE3804 EDX=0040388F EBX=EC5D41B8 ESP=0018FE48 EBP=0018FF24 ESI=0040C6EE EDI=0018FE48 EFLAG=00000207
0040C399	PUSHF                                                     EAX=00000009 ECX=77AE3804 EDX=0040388F EBX=EC5D41B8 ESP=0018FE48 EBP=0018FF24 ESI=0040C6EE EDI=0018FE48 EFLAG=00000207
0040C39A	SHRD     DX, AX, CL                                       EAX=00000009 ECX=77AE3804 EDX=0040388F EBX=EC5D41B8 ESP=0018FE44 EBP=0018FF24 ESI=0040C6EE EDI=0018FE48 EFLAG=00000207
0040C39E	ROR      DL, 0x4                                          EAX=00000009 ECX=77AE3804 EDX=00409388 EBX=EC5D41B8 ESP=0018FE44 EBP=0018FF24 ESI=0040C6EE EDI=0018FE48 EFLAG=00000A87
0040C3A1	ADD      AL, BL                                           EAX=00000009 ECX=77AE3804 EDX=00409388 EBX=EC5D41B8 ESP=0018FE44 EBP=0018FF24 ESI=0040C6EE EDI=0018FE48 EFLAG=00000A87
0040C3A3	PUSHF                                                     EAX=000000C1 ECX=77AE3804 EDX=00409388 EBX=EC5D41B8 ESP=0018FE44 EBP=0018FF24 ESI=0040C6EE EDI=0018FE48 EFLAG=00000292
0040C3A4	MOV      [ESP+0x4], DL                                    EAX=000000C1 ECX=77AE3804 EDX=00409388 EBX=EC5D41B8 ESP=0018FE40 EBP=0018FF24 ESI=0040C6EE EDI=0018FE48 EFLAG=00000292
0040C3A8	POP      EDX                                              EAX=000000C1 ECX=77AE3804 EDX=00409388 EBX=EC5D41B8 ESP=0018FE40 EBP=0018FF24 ESI=0040C6EE EDI=0018FE48 EFLAG=00000292
0040C3A9	LEA      EDX, [0x550aa025]                                EAX=000000C1 ECX=77AE3804 EDX=00000292 EBX=EC5D41B8 ESP=0018FE44 EBP=0018FF24 ESI=0040C6EE EDI=0018FE48 EFLAG=00000292
0040C3B0	DEC      AL                                               EAX=000000C1 ECX=77AE3804 EDX=550AA025 EBX=EC5D41B8 ESP=0018FE44 EBP=0018FF24 ESI=0040C6EE EDI=0018FE48 EFLAG=00000292
0040C3B2	BSWAP    DX                                               EAX=000000C0 ECX=77AE3804 EDX=550AA025 EBX=EC5D41B8 ESP=0018FE44 EBP=0018FF24 ESI=0040C6EE EDI=0018FE48 EFLAG=00000286
0040C3B5	BSR      EDX, EBP                                         EAX=000000C0 ECX=77AE3804 EDX=550A0000 EBX=EC5D41B8 ESP=0018FE44 EBP=0018FF24 ESI=0040C6EE EDI=0018FE48 EFLAG=00000286
0040C3B9	LEA      ESI, [ESI-0x1]                                   EAX=000000C0 ECX=77AE3804 EDX=550A000F EBX=EC5D41B8 ESP=0018FE44 EBP=0018FF24 ESI=0040C6EE EDI=0018FE48 EFLAG=00000206
0040C3BC	ADD      DH, CL                                           EAX=000000C0 ECX=77AE3804 EDX=550A000F EBX=EC5D41B8 ESP=0018FE44 EBP=0018FF24 ESI=0040C6ED EDI=0018FE48 EFLAG=00000206
0040C3BE	POP      EDX                                              EAX=000000C0 ECX=77AE3804 EDX=550A040F EBX=EC5D41B8 ESP=0018FE44 EBP=0018FF24 ESI=0040C6ED EDI=0018FE48 EFLAG=00000202
0040C3BF	XOR      DL, 0x77                                         EAX=000000C0 ECX=77AE3804 EDX=00000288 EBX=EC5D41B8 ESP=0018FE48 EBP=0018FF24 ESI=0040C6ED EDI=0018FE48 EFLAG=00000202
0040C3C2	CLC                                                       EAX=000000C0 ECX=77AE3804 EDX=000002FF EBX=EC5D41B8 ESP=0018FE48 EBP=0018FF24 ESI=0040C6ED EDI=0018FE48 EFLAG=00000286
0040C3C3	NEG      AL                                               EAX=000000C0 ECX=77AE3804 EDX=000002FF EBX=EC5D41B8 ESP=0018FE48 EBP=0018FF24 ESI=0040C6ED EDI=0018FE48 EFLAG=00000286
0040C3C5	STC                                                       EAX=00000040 ECX=77AE3804 EDX=000002FF EBX=EC5D41B8 ESP=0018FE48 EBP=0018FF24 ESI=0040C6ED EDI=0018FE48 EFLAG=00000203
0040C3C6	MOVSX    DX, BL                                           EAX=00000040 ECX=77AE3804 EDX=000002FF EBX=EC5D41B8 ESP=0018FE48 EBP=0018FF24 ESI=0040C6ED EDI=0018FE48 EFLAG=00000203
0040C3CA	ROR      AL, 0x1                                          EAX=00000040 ECX=77AE3804 EDX=0000FFB8 EBX=EC5D41B8 ESP=0018FE48 EBP=0018FF24 ESI=0040C6ED EDI=0018FE48 EFLAG=00000203
0040C3CC	BSWAP    EDX                                              EAX=00000020 ECX=77AE3804 EDX=0000FFB8 EBX=EC5D41B8 ESP=0018FE48 EBP=0018FF24 ESI=0040C6ED EDI=0018FE48 EFLAG=00000202
0040C3CE	ADD      BL, AL                                           EAX=00000020 ECX=77AE3804 EDX=B8FF0000 EBX=EC5D41B8 ESP=0018FE48 EBP=0018FF24 ESI=0040C6ED EDI=0018FE48 EFLAG=00000202
0040C3D0	BT       DI, 0x1                                          EAX=00000020 ECX=77AE3804 EDX=B8FF0000 EBX=EC5D41D8 ESP=0018FE48 EBP=0018FF24 ESI=0040C6ED EDI=0018FE48 EFLAG=00000286
0040C3D5	BT       BX, SP                                           EAX=00000020 ECX=77AE3804 EDX=B8FF0000 EBX=EC5D41D8 ESP=0018FE48 EBP=0018FF24 ESI=0040C6ED EDI=0018FE48 EFLAG=00000286
0040C3D9	MOV      EDX, [EAX+EDI]                                   EAX=00000020 ECX=77AE3804 EDX=B8FF0000 EBX=EC5D41D8 ESP=0018FE48 EBP=0018FF24 ESI=0040C6ED EDI=0018FE48 EFLAG=00000287
0040B380	CLC                                                       EAX=00000020 ECX=77AE3804 EDX=00000202 EBX=EC5D41D8 ESP=0018FE48 EBP=0018FF24 ESI=0040C6ED EDI=0018FE48 EFLAG=00000287
0040B381	TEST     SI, BP                                           EAX=00000020 ECX=77AE3804 EDX=00000202 EBX=EC5D41D8 ESP=0018FE48 EBP=0018FF24 ESI=0040C6ED EDI=0018FE48 EFLAG=00000286
0040B384	SUB      EBP, 0x4                                         EAX=00000020 ECX=77AE3804 EDX=00000202 EBX=EC5D41D8 ESP=0018FE48 EBP=0018FF24 ESI=0040C6ED EDI=0018FE48 EFLAG=00000286
0040B387	PUSHA                                                     EAX=00000020 ECX=77AE3804 EDX=00000202 EBX=EC5D41D8 ESP=0018FE48 EBP=0018FF20 ESI=0040C6ED EDI=0018FE48 EFLAG=00000202
0040B388	MOV      [ESP+0x4], CH                                    EAX=00000020 ECX=77AE3804 EDX=00000202 EBX=EC5D41D8 ESP=0018FE28 EBP=0018FF20 ESI=0040C6ED EDI=0018FE48 EFLAG=00000202
0040B38C	PUSHF                                                     EAX=00000020 ECX=77AE3804 EDX=00000202 EBX=EC5D41D8 ESP=0018FE28 EBP=0018FF20 ESI=0040C6ED EDI=0018FE48 EFLAG=00000202
0040B38D	MOV      [EBP+0x0], EDX                                   EAX=00000020 ECX=77AE3804 EDX=00000202 EBX=EC5D41D8 ESP=0018FE24 EBP=0018FF20 ESI=0040C6ED EDI=0018FE48 EFLAG=00000202
0040B390	PUSH     DWORD 0x7479a752                                 EAX=00000020 ECX=77AE3804 EDX=00000202 EBX=EC5D41D8 ESP=0018FE24 EBP=0018FF20 ESI=0040C6ED EDI=0018FE48 EFLAG=00000202
0040B395	PUSHF                                                     EAX=00000020 ECX=77AE3804 EDX=00000202 EBX=EC5D41D8 ESP=0018FE20 EBP=0018FF20 ESI=0040C6ED EDI=0018FE48 EFLAG=00000202
0040B396	PUSHF                                                     EAX=00000020 ECX=77AE3804 EDX=00000202 EBX=EC5D41D8 ESP=0018FE1C EBP=0018FF20 ESI=0040C6ED EDI=0018FE48 EFLAG=00000202
0040B397	PUSH     EAX                                              EAX=00000020 ECX=77AE3804 EDX=00000202 EBX=EC5D41D8 ESP=0018FE18 EBP=0018FF20 ESI=0040C6ED EDI=0018FE48 EFLAG=00000202
0040B398	LEA      ESP, [ESP+0x34]                                  EAX=00000020 ECX=77AE3804 EDX=00000202 EBX=EC5D41D8 ESP=0018FE14 EBP=0018FF20 ESI=0040C6ED EDI=0018FE48 EFLAG=00000202
0040C360	TEST     DH, 0x76                                         EAX=00000020 ECX=77AE3804 EDX=00000202 EBX=EC5D41D8 ESP=0018FE48 EBP=0018FF20 ESI=0040C6ED EDI=0018FE48 EFLAG=00000202
0040C363	LEA      EAX, [EDI+0x50]                                  EAX=00000020 ECX=77AE3804 EDX=00000202 EBX=EC5D41D8 ESP=0018FE48 EBP=0018FF20 ESI=0040C6ED EDI=0018FE48 EFLAG=00000202
0040C366	PUSH     DWORD 0xa76b4735                                 EAX=0018FE98 ECX=77AE3804 EDX=00000202 EBX=EC5D41D8 ESP=0018FE48 EBP=0018FF20 ESI=0040C6ED EDI=0018FE48 EFLAG=00000202
0040C36B	STC                                                       EAX=0018FE98 ECX=77AE3804 EDX=00000202 EBX=EC5D41D8 ESP=0018FE44 EBP=0018FF20 ESI=0040C6ED EDI=0018FE48 EFLAG=00000202
0040C36C	CMP      EBP, EAX                                         EAX=0018FE98 ECX=77AE3804 EDX=00000202 EBX=EC5D41D8 ESP=0018FE44 EBP=0018FF20 ESI=0040C6ED EDI=0018FE48 EFLAG=00000203
0040C36E	PUSH     DWORD 0xbe8fd443                                 EAX=0018FE98 ECX=77AE3804 EDX=00000202 EBX=EC5D41D8 ESP=0018FE44 EBP=0018FF20 ESI=0040C6ED EDI=0018FE48 EFLAG=00000216
0040C373	LEA      ESP, [ESP+0x8]                                   EAX=0018FE98 ECX=77AE3804 EDX=00000202 EBX=EC5D41D8 ESP=0018FE40 EBP=0018FF20 ESI=0040C6ED EDI=0018FE48 EFLAG=00000216
0040C377	JA       0x40befd                                         EAX=0018FE98 ECX=77AE3804 EDX=00000202 EBX=EC5D41D8 ESP=0018FE48 EBP=0018FF20 ESI=0040C6ED EDI=0018FE48 EFLAG=00000216
0040BEFD	BSWAP    DX                                               EAX=0018FE98 ECX=77AE3804 EDX=00000202 EBX=EC5D41D8 ESP=0018FE48 EBP=0018FF20 ESI=0040C6ED EDI=0018FE48 EFLAG=00000216
0040BF00	RCL      DL, CL                                           EAX=0018FE98 ECX=77AE3804 EDX=00000000 EBX=EC5D41D8 ESP=0018FE48 EBP=0018FF20 ESI=0040C6ED EDI=0018FE48 EFLAG=00000216
0040BF02	PUSHA                                                     EAX=0018FE98 ECX=77AE3804 EDX=00000000 EBX=EC5D41D8 ESP=0018FE48 EBP=0018FF20 ESI=0040C6ED EDI=0018FE48 EFLAG=00000216
0040BF03	AND      EDX, 0xfdc85d80                                  EAX=0018FE98 ECX=77AE3804 EDX=00000000 EBX=EC5D41D8 ESP=0018FE28 EBP=0018FF20 ESI=0040C6ED EDI=0018FE48 EFLAG=00000216
0040BF09	MOV      AL, [ESI-0x1]                                    EAX=0018FE98 ECX=77AE3804 EDX=00000000 EBX=EC5D41D8 ESP=0018FE28 EBP=0018FF20 ESI=0040C6ED EDI=0018FE48 EFLAG=00000246
0040BF0C	DEC      DH                                               EAX=0018FEAF ECX=77AE3804 EDX=00000000 EBX=EC5D41D8 ESP=0018FE28 EBP=0018FF20 ESI=0040C6ED EDI=0018FE48 EFLAG=00000246
0040BF0E	SUB      AL, BL                                           EAX=0018FEAF ECX=77AE3804 EDX=0000FF00 EBX=EC5D41D8 ESP=0018FE28 EBP=0018FF20 ESI=0040C6ED EDI=0018FE48 EFLAG=00000296
0040BF10	PUSHF                                                     EAX=0018FED7 ECX=77AE3804 EDX=0000FF00 EBX=EC5D41D8 ESP=0018FE28 EBP=0018FF20 ESI=0040C6ED EDI=0018FE48 EFLAG=00000287
0040BF11	BTC      DX, 0x4                                          EAX=0018FED7 ECX=77AE3804 EDX=0000FF00 EBX=EC5D41D8 ESP=0018FE24 EBP=0018FF20 ESI=0040C6ED EDI=0018FE48 EFLAG=00000287
0040BF16	PUSH     ESP                                              EAX=0018FED7 ECX=77AE3804 EDX=0000FF10 EBX=EC5D41D8 ESP=0018FE24 EBP=0018FF20 ESI=0040C6ED EDI=0018FE48 EFLAG=00000286
0040BF17	MOVZX    DX, AL                                           EAX=0018FED7 ECX=77AE3804 EDX=0000FF10 EBX=EC5D41D8 ESP=0018FE20 EBP=0018FF20 ESI=0040C6ED EDI=0018FE48 EFLAG=00000286
0040BF1B	ROR      AL, 0x7                                          EAX=0018FED7 ECX=77AE3804 EDX=000000D7 EBX=EC5D41D8 ESP=0018FE20 EBP=0018FF20 ESI=0040C6ED EDI=0018FE48 EFLAG=00000286
0040BF1E	ROL      DH, 0x3                                          EAX=0018FEAF ECX=77AE3804 EDX=000000D7 EBX=EC5D41D8 ESP=0018FE20 EBP=0018FF20 ESI=0040C6ED EDI=0018FE48 EFLAG=00000A87
0040BF21	SUB      AL, 0x30                                         EAX=0018FEAF ECX=77AE3804 EDX=000000D7 EBX=EC5D41D8 ESP=0018FE20 EBP=0018FF20 ESI=0040C6ED EDI=0018FE48 EFLAG=00000286
0040BF23	SHR      DX, 0x9                                          EAX=0018FE7F ECX=77AE3804 EDX=000000D7 EBX=EC5D41D8 ESP=0018FE20 EBP=0018FF20 ESI=0040C6ED EDI=0018FE48 EFLAG=00000A02
0040BF27	XOR      AL, 0xce                                         EAX=0018FE7F ECX=77AE3804 EDX=00000000 EBX=EC5D41D8 ESP=0018FE20 EBP=0018FF20 ESI=0040C6ED EDI=0018FE48 EFLAG=00000246
0040BF29	ADC      DL, 0xdb                                         EAX=0018FEB1 ECX=77AE3804 EDX=00000000 EBX=EC5D41D8 ESP=0018FE20 EBP=0018FF20 ESI=0040C6ED EDI=0018FE48 EFLAG=00000286
0040BF2C	BT       EBX, EDI                                         EAX=0018FEB1 ECX=77AE3804 EDX=000000DB EBX=EC5D41D8 ESP=0018FE20 EBP=0018FF20 ESI=0040C6ED EDI=0018FE48 EFLAG=00000286
0040BF2F	SETL     DH                                               EAX=0018FEB1 ECX=77AE3804 EDX=000000DB EBX=EC5D41D8 ESP=0018FE20 EBP=0018FF20 ESI=0040C6ED EDI=0018FE48 EFLAG=00000287
0040BF32	SUB      BL, AL                                           EAX=0018FEB1 ECX=77AE3804 EDX=000001DB EBX=EC5D41D8 ESP=0018FE20 EBP=0018FF20 ESI=0040C6ED EDI=0018FE48 EFLAG=00000287
0040BF34	STC                                                       EAX=0018FEB1 ECX=77AE3804 EDX=000001DB EBX=EC5D4127 ESP=0018FE20 EBP=0018FF20 ESI=0040C6ED EDI=0018FE48 EFLAG=00000206
0040BF35	MOVZX    EAX, AL                                          EAX=0018FEB1 ECX=77AE3804 EDX=000001DB EBX=EC5D4127 ESP=0018FE20 EBP=0018FF20 ESI=0040C6ED EDI=0018FE48 EFLAG=00000207
0040BF38	NOT      EDX                                              EAX=000000B1 ECX=77AE3804 EDX=000001DB EBX=EC5D4127 ESP=0018FE20 EBP=0018FF20 ESI=0040C6ED EDI=0018FE48 EFLAG=00000207
0040BF3A	BSF      EDX, EDI                                         EAX=000000B1 ECX=77AE3804 EDX=FFFFFE24 EBX=EC5D4127 ESP=0018FE20 EBP=0018FF20 ESI=0040C6ED EDI=0018FE48 EFLAG=00000207
0040BF3E	CMC                                                       EAX=000000B1 ECX=77AE3804 EDX=FFFF0003 EBX=EC5D4127 ESP=0018FE20 EBP=0018FF20 ESI=0040C6ED EDI=0018FE48 EFLAG=00000206
0040BF3F	SAL      DH, CL                                           EAX=000000B1 ECX=77AE3804 EDX=FFFF0003 EBX=EC5D4127 ESP=0018FE20 EBP=0018FF20 ESI=0040C6ED EDI=0018FE48 EFLAG=00000207
0040BF41	MOV      EDX, [EAX*4+0x40a51f]                            EAX=000000B1 ECX=77AE3804 EDX=FFFF0003 EBX=EC5D4127 ESP=0018FE20 EBP=0018FF20 ESI=0040C6ED EDI=0018FE48 EFLAG=00000246
0040BF48	TEST     EDX, 0xe75c2a09                                  EAX=000000B1 ECX=77AE3804 EDX=2BFA64BF EBX=EC5D4127 ESP=0018FE20 EBP=0018FF20 ESI=0040C6ED EDI=0018FE48 EFLAG=00000246
0040BF4E	TEST     BL, DL                                           EAX=000000B1 ECX=77AE3804 EDX=2BFA64BF EBX=EC5D4127 ESP=0018FE20 EBP=0018FF20 ESI=0040C6ED EDI=0018FE48 EFLAG=00000206
0040BF50	SUB      EDX, 0x2bb9b71b                                  EAX=000000B1 ECX=77AE3804 EDX=2BFA64BF EBX=EC5D4127 ESP=0018FE20 EBP=0018FF20 ESI=0040C6ED EDI=0018FE48 EFLAG=00000206
0040BF56	CALL     0x40bd78                                         EAX=000000B1 ECX=77AE3804 EDX=0040ADA4 EBX=EC5D4127 ESP=0018FE20 EBP=0018FF20 ESI=0040C6ED EDI=0018FE48 EFLAG=00000202
0040BD78	PUSH     EDX                                              EAX=000000B1 ECX=77AE3804 EDX=0040ADA4 EBX=EC5D4127 ESP=0018FE1C EBP=0018FF20 ESI=0040C6ED EDI=0018FE48 EFLAG=00000202
0040BD79	DEC      ESI                                              EAX=000000B1 ECX=77AE3804 EDX=0040ADA4 EBX=EC5D4127 ESP=0018FE18 EBP=0018FF20 ESI=0040C6ED EDI=0018FE48 EFLAG=00000202
0040BD7A	PUSHF                                                     EAX=000000B1 ECX=77AE3804 EDX=0040ADA4 EBX=EC5D4127 ESP=0018FE18 EBP=0018FF20 ESI=0040C6EC EDI=0018FE48 EFLAG=00000202
0040A91F	MOV      [ESP], DH                                        EAX=000000B1 ECX=77AE3804 EDX=0040ADA4 EBX=EC5D4127 ESP=0018FE14 EBP=0018FF20 ESI=0040C6EC EDI=0018FE48 EFLAG=00000202
0040A922	MOV      [ESP+0x30], EDX                                  EAX=000000B1 ECX=77AE3804 EDX=0040ADA4 EBX=EC5D4127 ESP=0018FE14 EBP=0018FF20 ESI=0040C6EC EDI=0018FE48 EFLAG=00000202
0040A926	MOV      [ESP], AL                                        EAX=000000B1 ECX=77AE3804 EDX=0040ADA4 EBX=EC5D4127 ESP=0018FE14 EBP=0018FF20 ESI=0040C6EC EDI=0018FE48 EFLAG=00000202
0040A929	PUSH     DWORD [ESP+0x30]                                 EAX=000000B1 ECX=77AE3804 EDX=0040ADA4 EBX=EC5D4127 ESP=0018FE14 EBP=0018FF20 ESI=0040C6EC EDI=0018FE48 EFLAG=00000202
0040A92D	RET      0x34                                             EAX=000000B1 ECX=77AE3804 EDX=0040ADA4 EBX=EC5D4127 ESP=0018FE10 EBP=0018FF20 ESI=0040C6EC EDI=0018FE48 EFLAG=00000202
0040ADA4	PUSHF                                                     EAX=000000B1 ECX=77AE3804 EDX=0040ADA4 EBX=EC5D4127 ESP=0018FE48 EBP=0018FF20 ESI=0040C6EC EDI=0018FE48 EFLAG=00000202
0040ADA5	XADD     DX, AX                                           EAX=000000B1 ECX=77AE3804 EDX=0040ADA4 EBX=EC5D4127 ESP=0018FE44 EBP=0018FF20 ESI=0040C6EC EDI=0018FE48 EFLAG=00000202
0040ADA9	BTS      EDX, 0x1                                         EAX=0000ADA4 ECX=77AE3804 EDX=0040AE55 EBX=EC5D4127 ESP=0018FE44 EBP=0018FF20 ESI=0040C6EC EDI=0018FE48 EFLAG=00000286
0040ADAD	MOV      EAX, [EBP+0x0]                                   EAX=0000ADA4 ECX=77AE3804 EDX=0040AE57 EBX=EC5D4127 ESP=0018FE44 EBP=0018FF20 ESI=0040C6EC EDI=0018FE48 EFLAG=00000286
0040ADB0	DEC      DL                                               EAX=00000202 ECX=77AE3804 EDX=0040AE57 EBX=EC5D4127 ESP=0018FE44 EBP=0018FF20 ESI=0040C6EC EDI=0018FE48 EFLAG=00000286
0040C14D	PUSHA                                                     EAX=00000202 ECX=77AE3804 EDX=0040AE56 EBX=EC5D4127 ESP=0018FE44 EBP=0018FF20 ESI=0040C6EC EDI=0018FE48 EFLAG=00000206
0040C14E	MOV      EDX, [EBP+0x4]                                   EAX=00000202 ECX=77AE3804 EDX=0040AE56 EBX=EC5D4127 ESP=0018FE24 EBP=0018FF20 ESI=0040C6EC EDI=0018FE48 EFLAG=00000206
0040C151	CALL     0x40a9f9                                         EAX=00000202 ECX=77AE3804 EDX=F6FBD3FF EBX=EC5D4127 ESP=0018FE24 EBP=0018FF20 ESI=0040C6EC EDI=0018FE48 EFLAG=00000206
0040A9F9	NOT      EAX                                              EAX=00000202 ECX=77AE3804 EDX=F6FBD3FF EBX=EC5D4127 ESP=0018FE20 EBP=0018FF20 ESI=0040C6EC EDI=0018FE48 EFLAG=00000206
0040A9FB	CMC                                                       EAX=FFFFFDFD ECX=77AE3804 EDX=F6FBD3FF EBX=EC5D4127 ESP=0018FE20 EBP=0018FF20 ESI=0040C6EC EDI=0018FE48 EFLAG=00000206
0040A9FC	PUSH     ECX                                              EAX=FFFFFDFD ECX=77AE3804 EDX=F6FBD3FF EBX=EC5D4127 ESP=0018FE20 EBP=0018FF20 ESI=0040C6EC EDI=0018FE48 EFLAG=00000207
0040A9FD	STC                                                       EAX=FFFFFDFD ECX=77AE3804 EDX=F6FBD3FF EBX=EC5D4127 ESP=0018FE1C EBP=0018FF20 ESI=0040C6EC EDI=0018FE48 EFLAG=00000207
0040A9FE	NOT      EDX                                              EAX=FFFFFDFD ECX=77AE3804 EDX=F6FBD3FF EBX=EC5D4127 ESP=0018FE1C EBP=0018FF20 ESI=0040C6EC EDI=0018FE48 EFLAG=00000207
0040AA00	CMC                                                       EAX=FFFFFDFD ECX=77AE3804 EDX=09042C00 EBX=EC5D4127 ESP=0018FE1C EBP=0018FF20 ESI=0040C6EC EDI=0018FE48 EFLAG=00000207
0040BD80	AND      EAX, EDX                                         EAX=FFFFFDFD ECX=77AE3804 EDX=09042C00 EBX=EC5D4127 ESP=0018FE1C EBP=0018FF20 ESI=0040C6EC EDI=0018FE48 EFLAG=00000206
0040BD82	CALL     0x40b402                                         EAX=09042C00 ECX=77AE3804 EDX=09042C00 EBX=EC5D4127 ESP=0018FE1C EBP=0018FF20 ESI=0040C6EC EDI=0018FE48 EFLAG=00000206
0040A3AC	MOV      WORD [ESP+0x4], 0x9f8                            EAX=09042C00 ECX=77AE3804 EDX=09042C00 EBX=EC5D4127 ESP=0018FE18 EBP=0018FF20 ESI=0040C6EC EDI=0018FE48 EFLAG=00000206
0040A3B3	MOV      [EBP+0x4], EAX                                   EAX=09042C00 ECX=77AE3804 EDX=09042C00 EBX=EC5D4127 ESP=0018FE18 EBP=0018FF20 ESI=0040C6EC EDI=0018FE48 EFLAG=00000206
0040AF1A	PUSHF                                                     EAX=09042C00 ECX=77AE3804 EDX=09042C00 EBX=EC5D4127 ESP=0018FE18 EBP=0018FF20 ESI=0040C6EC EDI=0018FE48 EFLAG=00000206
0040AF1B	POP      DWORD [ESP+0x2c]                                 EAX=09042C00 ECX=77AE3804 EDX=09042C00 EBX=EC5D4127 ESP=0018FE14 EBP=0018FF20 ESI=0040C6EC EDI=0018FE48 EFLAG=00000206
0040AF1F	CALL     0x40ab63                                         EAX=09042C00 ECX=77AE3804 EDX=09042C00 EBX=EC5D4127 ESP=0018FE18 EBP=0018FF20 ESI=0040C6EC EDI=0018FE48 EFLAG=00000206
0040AB63	MOV      BYTE [ESP+0x8], 0x9                              EAX=09042C00 ECX=77AE3804 EDX=09042C00 EBX=EC5D4127 ESP=0018FE14 EBP=0018FF20 ESI=0040C6EC EDI=0018FE48 EFLAG=00000206
0040AB68	PUSH     DWORD [ESP+0x30]                                 EAX=09042C00 ECX=77AE3804 EDX=09042C00 EBX=EC5D4127 ESP=0018FE14 EBP=0018FF20 ESI=0040C6EC EDI=0018FE48 EFLAG=00000206
0040AB6C	POP      DWORD [EBP+0x0]                                  EAX=09042C00 ECX=77AE3804 EDX=09042C00 EBX=EC5D4127 ESP=0018FE10 EBP=0018FF20 ESI=0040C6EC EDI=0018FE48 EFLAG=00000206
0040AB6F	PUSH     EDI                                              EAX=09042C00 ECX=77AE3804 EDX=09042C00 EBX=EC5D4127 ESP=0018FE14 EBP=0018FF20 ESI=0040C6EC EDI=0018FE48 EFLAG=00000206
0040AB70	PUSHF                                                     EAX=09042C00 ECX=77AE3804 EDX=09042C00 EBX=EC5D4127 ESP=0018FE10 EBP=0018FF20 ESI=0040C6EC EDI=0018FE48 EFLAG=00000206
0040AB71	LEA      ESP, [ESP+0x3c]                                  EAX=09042C00 ECX=77AE3804 EDX=09042C00 EBX=EC5D4127 ESP=0018FE0C EBP=0018FF20 ESI=0040C6EC EDI=0018FE48 EFLAG=00000206
0040BEFD	BSWAP    DX                                               EAX=09042C00 ECX=77AE3804 EDX=09042C00 EBX=EC5D4127 ESP=0018FE48 EBP=0018FF20 ESI=0040C6EC EDI=0018FE48 EFLAG=00000206
0040BF00	RCL      DL, CL                                           EAX=09042C00 ECX=77AE3804 EDX=09040000 EBX=EC5D4127 ESP=0018FE48 EBP=0018FF20 ESI=0040C6EC EDI=0018FE48 EFLAG=00000206
0040BF02	PUSHA                                                     EAX=09042C00 ECX=77AE3804 EDX=09040000 EBX=EC5D4127 ESP=0018FE48 EBP=0018FF20 ESI=0040C6EC EDI=0018FE48 EFLAG=00000206
0040BF03	AND      EDX, 0xfdc85d80                                  EAX=09042C00 ECX=77AE3804 EDX=09040000 EBX=EC5D4127 ESP=0018FE28 EBP=0018FF20 ESI=0040C6EC EDI=0018FE48 EFLAG=00000206
0040BF09	MOV      AL, [ESI-0x1]                                    EAX=09042C00 ECX=77AE3804 EDX=09000000 EBX=EC5D4127 ESP=0018FE28 EBP=0018FF20 ESI=0040C6EC EDI=0018FE48 EFLAG=00000206
0040BF0C	DEC      DH                                               EAX=09042C1F ECX=77AE3804 EDX=09000000 EBX=EC5D4127 ESP=0018FE28 EBP=0018FF20 ESI=0040C6EC EDI=0018FE48 EFLAG=00000206
0040BF0E	SUB      AL, BL                                           EAX=09042C1F ECX=77AE3804 EDX=0900FF00 EBX=EC5D4127 ESP=0018FE28 EBP=0018FF20 ESI=0040C6EC EDI=0018FE48 EFLAG=00000296
0040BF10	PUSHF                                                     EAX=09042CF8 ECX=77AE3804 EDX=0900FF00 EBX=EC5D4127 ESP=0018FE28 EBP=0018FF20 ESI=0040C6EC EDI=0018FE48 EFLAG=00000283
0040BF11	BTC      DX, 0x4                                          EAX=09042CF8 ECX=77AE3804 EDX=0900FF00 EBX=EC5D4127 ESP=0018FE24 EBP=0018FF20 ESI=0040C6EC EDI=0018FE48 EFLAG=00000283
0040BF16	PUSH     ESP                                              EAX=09042CF8 ECX=77AE3804 EDX=0900FF10 EBX=EC5D4127 ESP=0018FE24 EBP=0018FF20 ESI=0040C6EC EDI=0018FE48 EFLAG=00000282
0040BF17	MOVZX    DX, AL                                           EAX=09042CF8 ECX=77AE3804 EDX=0900FF10 EBX=EC5D4127 ESP=0018FE20 EBP=0018FF20 ESI=0040C6EC EDI=0018FE48 EFLAG=00000282
0040BF1B	ROR      AL, 0x7                                          EAX=09042CF8 ECX=77AE3804 EDX=090000F8 EBX=EC5D4127 ESP=0018FE20 EBP=0018FF20 ESI=0040C6EC EDI=0018FE48 EFLAG=00000282
0040BF1E	ROL      DH, 0x3                                          EAX=09042CF1 ECX=77AE3804 EDX=090000F8 EBX=EC5D4127 ESP=0018FE20 EBP=0018FF20 ESI=0040C6EC EDI=0018FE48 EFLAG=00000283
0040BF21	SUB      AL, 0x30                                         EAX=09042CF1 ECX=77AE3804 EDX=090000F8 EBX=EC5D4127 ESP=0018FE20 EBP=0018FF20 ESI=0040C6EC EDI=0018FE48 EFLAG=00000282
0040BF23	SHR      DX, 0x9                                          EAX=09042CC1 ECX=77AE3804 EDX=090000F8 EBX=EC5D4127 ESP=0018FE20 EBP=0018FF20 ESI=0040C6EC EDI=0018FE48 EFLAG=00000282
0040BF27	XOR      AL, 0xce                                         EAX=09042CC1 ECX=77AE3804 EDX=09000000 EBX=EC5D4127 ESP=0018FE20 EBP=0018FF20 ESI=0040C6EC EDI=0018FE48 EFLAG=00000246
0040BF29	ADC      DL, 0xdb                                         EAX=09042C0F ECX=77AE3804 EDX=09000000 EBX=EC5D4127 ESP=0018FE20 EBP=0018FF20 ESI=0040C6EC EDI=0018FE48 EFLAG=00000206
0040BF2C	BT       EBX, EDI                                         EAX=09042C0F ECX=77AE3804 EDX=090000DB EBX=EC5D4127 ESP=0018FE20 EBP=0018FF20 ESI=0040C6EC EDI=0018FE48 EFLAG=00000286
0040BF2F	SETL     DH                                               EAX=09042C0F ECX=77AE3804 EDX=090000DB EBX=EC5D4127 ESP=0018FE20 EBP=0018FF20 ESI=0040C6EC EDI=0018FE48 EFLAG=00000287
0040BF32	SUB      BL, AL                                           EAX=09042C0F ECX=77AE3804 EDX=090001DB EBX=EC5D4127 ESP=0018FE20 EBP=0018FF20 ESI=0040C6EC EDI=0018FE48 EFLAG=00000287
0040BF34	STC                                                       EAX=09042C0F ECX=77AE3804 EDX=090001DB EBX=EC5D4118 ESP=0018FE20 EBP=0018FF20 ESI=0040C6EC EDI=0018FE48 EFLAG=00000216
0040BF35	MOVZX    EAX, AL                                          EAX=09042C0F ECX=77AE3804 EDX=090001DB EBX=EC5D4118 ESP=0018FE20 EBP=0018FF20 ESI=0040C6EC EDI=0018FE48 EFLAG=00000217
0040BF38	NOT      EDX                                              EAX=0000000F ECX=77AE3804 EDX=090001DB EBX=EC5D4118 ESP=0018FE20 EBP=0018FF20 ESI=0040C6EC EDI=0018FE48 EFLAG=00000217
0040BF3A	BSF      EDX, EDI                                         EAX=0000000F ECX=77AE3804 EDX=F6FFFE24 EBX=EC5D4118 ESP=0018FE20 EBP=0018FF20 ESI=0040C6EC EDI=0018FE48 EFLAG=00000217
0040BF3E	CMC                                                       EAX=0000000F ECX=77AE3804 EDX=F6FF0003 EBX=EC5D4118 ESP=0018FE20 EBP=0018FF20 ESI=0040C6EC EDI=0018FE48 EFLAG=00000206
0040BF3F	SAL      DH, CL                                           EAX=0000000F ECX=77AE3804 EDX=F6FF0003 EBX=EC5D4118 ESP=0018FE20 EBP=0018FF20 ESI=0040C6EC EDI=0018FE48 EFLAG=00000207
0040BF41	MOV      EDX, [EAX*4+0x40a51f]                            EAX=0000000F ECX=77AE3804 EDX=F6FF0003 EBX=EC5D4118 ESP=0018FE20 EBP=0018FF20 ESI=0040C6EC EDI=0018FE48 EFLAG=00000246
0040BF48	TEST     EDX, 0xe75c2a09                                  EAX=0000000F ECX=77AE3804 EDX=2BFA6887 EBX=EC5D4118 ESP=0018FE20 EBP=0018FF20 ESI=0040C6EC EDI=0018FE48 EFLAG=00000246
0040BF4E	TEST     BL, DL                                           EAX=0000000F ECX=77AE3804 EDX=2BFA6887 EBX=EC5D4118 ESP=0018FE20 EBP=0018FF20 ESI=0040C6EC EDI=0018FE48 EFLAG=00000202
0040BF50	SUB      EDX, 0x2bb9b71b                                  EAX=0000000F ECX=77AE3804 EDX=2BFA6887 EBX=EC5D4118 ESP=0018FE20 EBP=0018FF20 ESI=0040C6EC EDI=0018FE48 EFLAG=00000246
0040BF56	CALL     0x40bd78                                         EAX=0000000F ECX=77AE3804 EDX=0040B16C EBX=EC5D4118 ESP=0018FE20 EBP=0018FF20 ESI=0040C6EC EDI=0018FE48 EFLAG=00000216
0040BD78	PUSH     EDX                                              EAX=0000000F ECX=77AE3804 EDX=0040B16C EBX=EC5D4118 ESP=0018FE1C EBP=0018FF20 ESI=0040C6EC EDI=0018FE48 EFLAG=00000216
0040BD79	DEC      ESI                                              EAX=0000000F ECX=77AE3804 EDX=0040B16C EBX=EC5D4118 ESP=0018FE18 EBP=0018FF20 ESI=0040C6EC EDI=0018FE48 EFLAG=00000216
0040BD7A	PUSHF                                                     EAX=0000000F ECX=77AE3804 EDX=0040B16C EBX=EC5D4118 ESP=0018FE18 EBP=0018FF20 ESI=0040C6EB EDI=0018FE48 EFLAG=00000206
0040A91F	MOV      [ESP], DH                                        EAX=0000000F ECX=77AE3804 EDX=0040B16C EBX=EC5D4118 ESP=0018FE14 EBP=0018FF20 ESI=0040C6EB EDI=0018FE48 EFLAG=00000206
0040A922	MOV      [ESP+0x30], EDX                                  EAX=0000000F ECX=77AE3804 EDX=0040B16C EBX=EC5D4118 ESP=0018FE14 EBP=0018FF20 ESI=0040C6EB EDI=0018FE48 EFLAG=00000206
0040A926	MOV      [ESP], AL                                        EAX=0000000F ECX=77AE3804 EDX=0040B16C EBX=EC5D4118 ESP=0018FE14 EBP=0018FF20 ESI=0040C6EB EDI=0018FE48 EFLAG=00000206
0040A929	PUSH     DWORD [ESP+0x30]                                 EAX=0000000F ECX=77AE3804 EDX=0040B16C EBX=EC5D4118 ESP=0018FE14 EBP=0018FF20 ESI=0040C6EB EDI=0018FE48 EFLAG=00000206
0040A92D	RET      0x34                                             EAX=0000000F ECX=77AE3804 EDX=0040B16C EBX=EC5D4118 ESP=0018FE10 EBP=0018FF20 ESI=0040C6EB EDI=0018FE48 EFLAG=00000206
0040B16C	CALL     0x40bb09                                         EAX=0000000F ECX=77AE3804 EDX=0040B16C EBX=EC5D4118 ESP=0018FE48 EBP=0018FF20 ESI=0040C6EB EDI=0018FE48 EFLAG=00000206
0040BB09	SUB      DL, AH                                           EAX=0000000F ECX=77AE3804 EDX=0040B16C EBX=EC5D4118 ESP=0018FE44 EBP=0018FF20 ESI=0040C6EB EDI=0018FE48 EFLAG=00000206
0040BB0B	MOV      AL, [ESI-0x1]                                    EAX=0000000F ECX=77AE3804 EDX=0040B16C EBX=EC5D4118 ESP=0018FE44 EBP=0018FF20 ESI=0040C6EB EDI=0018FE48 EFLAG=00000206
0040BB0E	LEA      ESP, [ESP+0x4]                                   EAX=00000091 ECX=77AE3804 EDX=0040B16C EBX=EC5D4118 ESP=0018FE44 EBP=0018FF20 ESI=0040C6EB EDI=0018FE48 EFLAG=00000206
0040BB12	JNP      0x40bd9a                                         EAX=00000091 ECX=77AE3804 EDX=0040B16C EBX=EC5D4118 ESP=0018FE48 EBP=0018FF20 ESI=0040C6EB EDI=0018FE48 EFLAG=00000206
0040BB18	BSR      EDX, ECX                                         EAX=00000091 ECX=77AE3804 EDX=0040B16C EBX=EC5D4118 ESP=0018FE48 EBP=0018FF20 ESI=0040C6EB EDI=0018FE48 EFLAG=00000206
0040BB1B	ADD      AL, BL                                           EAX=00000091 ECX=77AE3804 EDX=0000001E EBX=EC5D4118 ESP=0018FE48 EBP=0018FF20 ESI=0040C6EB EDI=0018FE48 EFLAG=00000206
0040BB1D	PUSH     EDX                                              EAX=000000A9 ECX=77AE3804 EDX=0000001E EBX=EC5D4118 ESP=0018FE48 EBP=0018FF20 ESI=0040C6EB EDI=0018FE48 EFLAG=00000286
0040BB1E	DEC      AL                                               EAX=000000A9 ECX=77AE3804 EDX=0000001E EBX=EC5D4118 ESP=0018FE44 EBP=0018FF20 ESI=0040C6EB EDI=0018FE48 EFLAG=00000286
0040BB20	DEC      DH                                               EAX=000000A8 ECX=77AE3804 EDX=0000001E EBX=EC5D4118 ESP=0018FE44 EBP=0018FF20 ESI=0040C6EB EDI=0018FE48 EFLAG=00000282
0040BB22	NEG      AL                                               EAX=000000A8 ECX=77AE3804 EDX=0000FF1E EBX=EC5D4118 ESP=0018FE44 EBP=0018FF20 ESI=0040C6EB EDI=0018FE48 EFLAG=00000296
0040BB24	CALL     0x40b99f                                         EAX=00000058 ECX=77AE3804 EDX=0000FF1E EBX=EC5D4118 ESP=0018FE44 EBP=0018FF20 ESI=0040C6EB EDI=0018FE48 EFLAG=00000213
0040B99F	BTC      EDX, 0xe                                         EAX=00000058 ECX=77AE3804 EDX=0000FF1E EBX=EC5D4118 ESP=0018FE40 EBP=0018FF20 ESI=0040C6EB EDI=0018FE48 EFLAG=00000213
0040B9A3	MOVZX    EDX, DL                                          EAX=00000058 ECX=77AE3804 EDX=0000BF1E EBX=EC5D4118 ESP=0018FE40 EBP=0018FF20 ESI=0040C6EB EDI=0018FE48 EFLAG=00000213
0040B9A6	CMC                                                       EAX=00000058 ECX=77AE3804 EDX=0000001E EBX=EC5D4118 ESP=0018FE40 EBP=0018FF20 ESI=0040C6EB EDI=0018FE48 EFLAG=00000213
0040B9A7	ROR      AL, 0x1                                          EAX=00000058 ECX=77AE3804 EDX=0000001E EBX=EC5D4118 ESP=0018FE40 EBP=0018FF20 ESI=0040C6EB EDI=0018FE48 EFLAG=00000212
0040B9A9	SBB      DX, 0x612a                                       EAX=0000002C ECX=77AE3804 EDX=0000001E EBX=EC5D4118 ESP=0018FE40 EBP=0018FF20 ESI=0040C6EB EDI=0018FE48 EFLAG=00000212
0040B9AE	ADC      DL, DL                                           EAX=0000002C ECX=77AE3804 EDX=00009EF4 EBX=EC5D4118 ESP=0018FE40 EBP=0018FF20 ESI=0040C6EB EDI=0018FE48 EFLAG=00000283
0040B9B0	ADD      DX, CX                                           EAX=0000002C ECX=77AE3804 EDX=00009EE9 EBX=EC5D4118 ESP=0018FE40 EBP=0018FF20 ESI=0040C6EB EDI=0018FE48 EFLAG=00000283
0040B9B3	BSWAP    DX                                               EAX=0000002C ECX=77AE3804 EDX=0000D6ED EBX=EC5D4118 ESP=0018FE40 EBP=0018FF20 ESI=0040C6EB EDI=0018FE48 EFLAG=00000286
0040B9B6	ADD      BL, AL                                           EAX=0000002C ECX=77AE3804 EDX=00000000 EBX=EC5D4118 ESP=0018FE40 EBP=0018FF20 ESI=0040C6EB EDI=0018FE48 EFLAG=00000286
0040B9B8	AND      EDX, ESP                                         EAX=0000002C ECX=77AE3804 EDX=00000000 EBX=EC5D4144 ESP=0018FE40 EBP=0018FF20 ESI=0040C6EB EDI=0018FE48 EFLAG=00000216
0040B9BA	LEA      ESI, [ESI-0x1]                                   EAX=0000002C ECX=77AE3804 EDX=00000000 EBX=EC5D4144 ESP=0018FE40 EBP=0018FF20 ESI=0040C6EB EDI=0018FE48 EFLAG=00000246
0040B9BD	SHRD     DX, SP, CL                                       EAX=0000002C ECX=77AE3804 EDX=00000000 EBX=EC5D4144 ESP=0018FE40 EBP=0018FF20 ESI=0040C6EA EDI=0018FE48 EFLAG=00000246
0040B9C1	INC      DX                                               EAX=0000002C ECX=77AE3804 EDX=00000000 EBX=EC5D4144 ESP=0018FE40 EBP=0018FF20 ESI=0040C6EA EDI=0018FE48 EFLAG=00000246
0040B9C4	SBB      EDX, EDX                                         EAX=0000002C ECX=77AE3804 EDX=00000001 EBX=EC5D4144 ESP=0018FE40 EBP=0018FF20 ESI=0040C6EA EDI=0018FE48 EFLAG=00000202
0040B9C6	ADD      DX, 0x9dea                                       EAX=0000002C ECX=77AE3804 EDX=00000000 EBX=EC5D4144 ESP=0018FE40 EBP=0018FF20 ESI=0040C6EA EDI=0018FE48 EFLAG=00000246
0040B9CB	MOV      EDX, [EBP+0x0]                                   EAX=0000002C ECX=77AE3804 EDX=00009DEA EBX=EC5D4144 ESP=0018FE40 EBP=0018FF20 ESI=0040C6EA EDI=0018FE48 EFLAG=00000282
0040B9CE	PUSHA                                                     EAX=0000002C ECX=77AE3804 EDX=00000206 EBX=EC5D4144 ESP=0018FE40 EBP=0018FF20 ESI=0040C6EA EDI=0018FE48 EFLAG=00000282
0040B9CF	STC                                                       EAX=0000002C ECX=77AE3804 EDX=00000206 EBX=EC5D4144 ESP=0018FE20 EBP=0018FF20 ESI=0040C6EA EDI=0018FE48 EFLAG=00000282
0040B9D0	CALL     0x40c120                                         EAX=0000002C ECX=77AE3804 EDX=00000206 EBX=EC5D4144 ESP=0018FE20 EBP=0018FF20 ESI=0040C6EA EDI=0018FE48 EFLAG=00000283
0040B3B2	ADD      EBP, 0x4                                         EAX=0000002C ECX=77AE3804 EDX=00000206 EBX=EC5D4144 ESP=0018FE1C EBP=0018FF20 ESI=0040C6EA EDI=0018FE48 EFLAG=00000283
0040B3B5	CALL     0x40c167                                         EAX=0000002C ECX=77AE3804 EDX=00000206 EBX=EC5D4144 ESP=0018FE1C EBP=0018FF24 ESI=0040C6EA EDI=0018FE48 EFLAG=00000206
0040C167	MOV      [EAX+EDI], EDX                                   EAX=0000002C ECX=77AE3804 EDX=00000206 EBX=EC5D4144 ESP=0018FE18 EBP=0018FF24 ESI=0040C6EA EDI=0018FE48 EFLAG=00000206
0040C16A	MOV      WORD [ESP+0x4], 0x4a62                           EAX=0000002C ECX=77AE3804 EDX=00000206 EBX=EC5D4144 ESP=0018FE18 EBP=0018FF24 ESI=0040C6EA EDI=0018FE48 EFLAG=00000206
0040C171	MOV      [ESP], DH                                        EAX=0000002C ECX=77AE3804 EDX=00000206 EBX=EC5D4144 ESP=0018FE18 EBP=0018FF24 ESI=0040C6EA EDI=0018FE48 EFLAG=00000206
0040C174	PUSHF                                                     EAX=0000002C ECX=77AE3804 EDX=00000206 EBX=EC5D4144 ESP=0018FE18 EBP=0018FF24 ESI=0040C6EA EDI=0018FE48 EFLAG=00000206
0040C175	PUSHF                                                     EAX=0000002C ECX=77AE3804 EDX=00000206 EBX=EC5D4144 ESP=0018FE14 EBP=0018FF24 ESI=0040C6EA EDI=0018FE48 EFLAG=00000206
0040C176	LEA      ESP, [ESP+0x38]                                  EAX=0000002C ECX=77AE3804 EDX=00000206 EBX=EC5D4144 ESP=0018FE10 EBP=0018FF24 ESI=0040C6EA EDI=0018FE48 EFLAG=00000206
0040BEFD	BSWAP    DX                                               EAX=0000002C ECX=77AE3804 EDX=00000206 EBX=EC5D4144 ESP=0018FE48 EBP=0018FF24 ESI=0040C6EA EDI=0018FE48 EFLAG=00000206
0040BF00	RCL      DL, CL                                           EAX=0000002C ECX=77AE3804 EDX=00000000 EBX=EC5D4144 ESP=0018FE48 EBP=0018FF24 ESI=0040C6EA EDI=0018FE48 EFLAG=00000206
0040BF02	PUSHA                                                     EAX=0000002C ECX=77AE3804 EDX=00000000 EBX=EC5D4144 ESP=0018FE48 EBP=0018FF24 ESI=0040C6EA EDI=0018FE48 EFLAG=00000206
0040BF03	AND      EDX, 0xfdc85d80                                  EAX=0000002C ECX=77AE3804 EDX=00000000 EBX=EC5D4144 ESP=0018FE28 EBP=0018FF24 ESI=0040C6EA EDI=0018FE48 EFLAG=00000206
0040BF09	MOV      AL, [ESI-0x1]                                    EAX=0000002C ECX=77AE3804 EDX=00000000 EBX=EC5D4144 ESP=0018FE28 EBP=0018FF24 ESI=0040C6EA EDI=0018FE48 EFLAG=00000246
0040BF0C	DEC      DH                                               EAX=000000A2 ECX=77AE3804 EDX=00000000 EBX=EC5D4144 ESP=0018FE28 EBP=0018FF24 ESI=0040C6EA EDI=0018FE48 EFLAG=00000246
0040BF0E	SUB      AL, BL                                           EAX=000000A2 ECX=77AE3804 EDX=0000FF00 EBX=EC5D4144 ESP=0018FE28 EBP=0018FF24 ESI=0040C6EA EDI=0018FE48 EFLAG=00000296
0040BF10	PUSHF                                                     EAX=0000005E ECX=77AE3804 EDX=0000FF00 EBX=EC5D4144 ESP=0018FE28 EBP=0018FF24 ESI=0040C6EA EDI=0018FE48 EFLAG=00000A12
0040BF11	BTC      DX, 0x4                                          EAX=0000005E ECX=77AE3804 EDX=0000FF00 EBX=EC5D4144 ESP=0018FE24 EBP=0018FF24 ESI=0040C6EA EDI=0018FE48 EFLAG=00000A12
0040BF16	PUSH     ESP                                              EAX=0000005E ECX=77AE3804 EDX=0000FF10 EBX=EC5D4144 ESP=0018FE24 EBP=0018FF24 ESI=0040C6EA EDI=0018FE48 EFLAG=00000A12
0040BF17	MOVZX    DX, AL                                           EAX=0000005E ECX=77AE3804 EDX=0000FF10 EBX=EC5D4144 ESP=0018FE20 EBP=0018FF24 ESI=0040C6EA EDI=0018FE48 EFLAG=00000A12
0040BF1B	ROR      AL, 0x7                                          EAX=0000005E ECX=77AE3804 EDX=0000005E EBX=EC5D4144 ESP=0018FE20 EBP=0018FF24 ESI=0040C6EA EDI=0018FE48 EFLAG=00000A12
0040BF1E	ROL      DH, 0x3                                          EAX=000000BC ECX=77AE3804 EDX=0000005E EBX=EC5D4144 ESP=0018FE20 EBP=0018FF24 ESI=0040C6EA EDI=0018FE48 EFLAG=00000A13
0040BF21	SUB      AL, 0x30                                         EAX=000000BC ECX=77AE3804 EDX=0000005E EBX=EC5D4144 ESP=0018FE20 EBP=0018FF24 ESI=0040C6EA EDI=0018FE48 EFLAG=00000212
0040BF23	SHR      DX, 0x9                                          EAX=0000008C ECX=77AE3804 EDX=0000005E EBX=EC5D4144 ESP=0018FE20 EBP=0018FF24 ESI=0040C6EA EDI=0018FE48 EFLAG=00000282
0040BF27	XOR      AL, 0xce                                         EAX=0000008C ECX=77AE3804 EDX=00000000 EBX=EC5D4144 ESP=0018FE20 EBP=0018FF24 ESI=0040C6EA EDI=0018FE48 EFLAG=00000246
0040BF29	ADC      DL, 0xdb                                         EAX=00000042 ECX=77AE3804 EDX=00000000 EBX=EC5D4144 ESP=0018FE20 EBP=0018FF24 ESI=0040C6EA EDI=0018FE48 EFLAG=00000206
0040BF2C	BT       EBX, EDI                                         EAX=00000042 ECX=77AE3804 EDX=000000DB EBX=EC5D4144 ESP=0018FE20 EBP=0018FF24 ESI=0040C6EA EDI=0018FE48 EFLAG=00000286
0040BF2F	SETL     DH                                               EAX=00000042 ECX=77AE3804 EDX=000000DB EBX=EC5D4144 ESP=0018FE20 EBP=0018FF24 ESI=0040C6EA EDI=0018FE48 EFLAG=00000287
0040BF32	SUB      BL, AL                                           EAX=00000042 ECX=77AE3804 EDX=000001DB EBX=EC5D4144 ESP=0018FE20 EBP=0018FF24 ESI=0040C6EA EDI=0018FE48 EFLAG=00000287
0040BF34	STC                                                       EAX=00000042 ECX=77AE3804 EDX=000001DB EBX=EC5D4102 ESP=0018FE20 EBP=0018FF24 ESI=0040C6EA EDI=0018FE48 EFLAG=00000202
0040BF35	MOVZX    EAX, AL                                          EAX=00000042 ECX=77AE3804 EDX=000001DB EBX=EC5D4102 ESP=0018FE20 EBP=0018FF24 ESI=0040C6EA EDI=0018FE48 EFLAG=00000203
0040BF38	NOT      EDX                                              EAX=00000042 ECX=77AE3804 EDX=000001DB EBX=EC5D4102 ESP=0018FE20 EBP=0018FF24 ESI=0040C6EA EDI=0018FE48 EFLAG=00000203
0040BF3A	BSF      EDX, EDI                                         EAX=00000042 ECX=77AE3804 EDX=FFFFFE24 EBX=EC5D4102 ESP=0018FE20 EBP=0018FF24 ESI=0040C6EA EDI=0018FE48 EFLAG=00000203
0040BF3E	CMC                                                       EAX=00000042 ECX=77AE3804 EDX=FFFF0003 EBX=EC5D4102 ESP=0018FE20 EBP=0018FF24 ESI=0040C6EA EDI=0018FE48 EFLAG=00000206
0040BF3F	SAL      DH, CL                                           EAX=00000042 ECX=77AE3804 EDX=FFFF0003 EBX=EC5D4102 ESP=0018FE20 EBP=0018FF24 ESI=0040C6EA EDI=0018FE48 EFLAG=00000207
0040BF41	MOV      EDX, [EAX*4+0x40a51f]                            EAX=00000042 ECX=77AE3804 EDX=FFFF0003 EBX=EC5D4102 ESP=0018FE20 EBP=0018FF24 ESI=0040C6EA EDI=0018FE48 EFLAG=00000246
0040BF48	TEST     EDX, 0xe75c2a09                                  EAX=00000042 ECX=77AE3804 EDX=2BFA64BF EBX=EC5D4102 ESP=0018FE20 EBP=0018FF24 ESI=0040C6EA EDI=0018FE48 EFLAG=00000246
0040BF4E	TEST     BL, DL                                           EAX=00000042 ECX=77AE3804 EDX=2BFA64BF EBX=EC5D4102 ESP=0018FE20 EBP=0018FF24 ESI=0040C6EA EDI=0018FE48 EFLAG=00000206
0040BF50	SUB      EDX, 0x2bb9b71b                                  EAX=00000042 ECX=77AE3804 EDX=2BFA64BF EBX=EC5D4102 ESP=0018FE20 EBP=0018FF24 ESI=0040C6EA EDI=0018FE48 EFLAG=00000202
0040BF56	CALL     0x40bd78                                         EAX=00000042 ECX=77AE3804 EDX=0040ADA4 EBX=EC5D4102 ESP=0018FE20 EBP=0018FF24 ESI=0040C6EA EDI=0018FE48 EFLAG=00000202
0040BD78	PUSH     EDX                                              EAX=00000042 ECX=77AE3804 EDX=0040ADA4 EBX=EC5D4102 ESP=0018FE1C EBP=0018FF24 ESI=0040C6EA EDI=0018FE48 EFLAG=00000202
0040BD79	DEC      ESI                                              EAX=00000042 ECX=77AE3804 EDX=0040ADA4 EBX=EC5D4102 ESP=0018FE18 EBP=0018FF24 ESI=0040C6EA EDI=0018FE48 EFLAG=00000202
0040BD7A	PUSHF                                                     EAX=00000042 ECX=77AE3804 EDX=0040ADA4 EBX=EC5D4102 ESP=0018FE18 EBP=0018FF24 ESI=0040C6E9 EDI=0018FE48 EFLAG=00000202
0040A91F	MOV      [ESP], DH                                        EAX=00000042 ECX=77AE3804 EDX=0040ADA4 EBX=EC5D4102 ESP=0018FE14 EBP=0018FF24 ESI=0040C6E9 EDI=0018FE48 EFLAG=00000202
0040A922	MOV      [ESP+0x30], EDX                                  EAX=00000042 ECX=77AE3804 EDX=0040ADA4 EBX=EC5D4102 ESP=0018FE14 EBP=0018FF24 ESI=0040C6E9 EDI=0018FE48 EFLAG=00000202
0040A926	MOV      [ESP], AL                                        EAX=00000042 ECX=77AE3804 EDX=0040ADA4 EBX=EC5D4102 ESP=0018FE14 EBP=0018FF24 ESI=0040C6E9 EDI=0018FE48 EFLAG=00000202
0040A929	PUSH     DWORD [ESP+0x30]                                 EAX=00000042 ECX=77AE3804 EDX=0040ADA4 EBX=EC5D4102 ESP=0018FE14 EBP=0018FF24 ESI=0040C6E9 EDI=0018FE48 EFLAG=00000202
0040A92D	RET      0x34                                             EAX=00000042 ECX=77AE3804 EDX=0040ADA4 EBX=EC5D4102 ESP=0018FE10 EBP=0018FF24 ESI=0040C6E9 EDI=0018FE48 EFLAG=00000202
0040ADA4	PUSHF                                                     EAX=00000042 ECX=77AE3804 EDX=0040ADA4 EBX=EC5D4102 ESP=0018FE48 EBP=0018FF24 ESI=0040C6E9 EDI=0018FE48 EFLAG=00000202
0040ADA5	XADD     DX, AX                                           EAX=00000042 ECX=77AE3804 EDX=0040ADA4 EBX=EC5D4102 ESP=0018FE44 EBP=0018FF24 ESI=0040C6E9 EDI=0018FE48 EFLAG=00000202
0040ADA9	BTS      EDX, 0x1                                         EAX=0000ADA4 ECX=77AE3804 EDX=0040ADE6 EBX=EC5D4102 ESP=0018FE44 EBP=0018FF24 ESI=0040C6E9 EDI=0018FE48 EFLAG=00000282
0040ADAD	MOV      EAX, [EBP+0x0]                                   EAX=0000ADA4 ECX=77AE3804 EDX=0040ADE6 EBX=EC5D4102 ESP=0018FE44 EBP=0018FF24 ESI=0040C6E9 EDI=0018FE48 EFLAG=00000283
0040ADB0	DEC      DL                                               EAX=09042C00 ECX=77AE3804 EDX=0040ADE6 EBX=EC5D4102 ESP=0018FE44 EBP=0018FF24 ESI=0040C6E9 EDI=0018FE48 EFLAG=00000283
0040C14D	PUSHA                                                     EAX=09042C00 ECX=77AE3804 EDX=0040ADE5 EBX=EC5D4102 ESP=0018FE44 EBP=0018FF24 ESI=0040C6E9 EDI=0018FE48 EFLAG=00000283
0040C14E	MOV      EDX, [EBP+0x4]                                   EAX=09042C00 ECX=77AE3804 EDX=0040ADE5 EBX=EC5D4102 ESP=0018FE24 EBP=0018FF24 ESI=0040C6E9 EDI=0018FE48 EFLAG=00000283
0040C151	CALL     0x40a9f9                                         EAX=09042C00 ECX=77AE3804 EDX=00000202 EBX=EC5D4102 ESP=0018FE24 EBP=0018FF24 ESI=0040C6E9 EDI=0018FE48 EFLAG=00000283
0040A9F9	NOT      EAX                                              EAX=09042C00 ECX=77AE3804 EDX=00000202 EBX=EC5D4102 ESP=0018FE20 EBP=0018FF24 ESI=0040C6E9 EDI=0018FE48 EFLAG=00000283
0040A9FB	CMC                                                       EAX=F6FBD3FF ECX=77AE3804 EDX=00000202 EBX=EC5D4102 ESP=0018FE20 EBP=0018FF24 ESI=0040C6E9 EDI=0018FE48 EFLAG=00000283
0040A9FC	PUSH     ECX                                              EAX=F6FBD3FF ECX=77AE3804 EDX=00000202 EBX=EC5D4102 ESP=0018FE20 EBP=0018FF24 ESI=0040C6E9 EDI=0018FE48 EFLAG=00000282
0040A9FD	STC                                                       EAX=F6FBD3FF ECX=77AE3804 EDX=00000202 EBX=EC5D4102 ESP=0018FE1C EBP=0018FF24 ESI=0040C6E9 EDI=0018FE48 EFLAG=00000282
0040A9FE	NOT      EDX                                              EAX=F6FBD3FF ECX=77AE3804 EDX=00000202 EBX=EC5D4102 ESP=0018FE1C EBP=0018FF24 ESI=0040C6E9 EDI=0018FE48 EFLAG=00000283
0040AA00	CMC                                                       EAX=F6FBD3FF ECX=77AE3804 EDX=FFFFFDFD EBX=EC5D4102 ESP=0018FE1C EBP=0018FF24 ESI=0040C6E9 EDI=0018FE48 EFLAG=00000283
0040BD80	AND      EAX, EDX                                         EAX=F6FBD3FF ECX=77AE3804 EDX=FFFFFDFD EBX=EC5D4102 ESP=0018FE1C EBP=0018FF24 ESI=0040C6E9 EDI=0018FE48 EFLAG=00000282
0040BD82	CALL     0x40b402                                         EAX=F6FBD1FD ECX=77AE3804 EDX=FFFFFDFD EBX=EC5D4102 ESP=0018FE1C EBP=0018FF24 ESI=0040C6E9 EDI=0018FE48 EFLAG=00000282
0040A3AC	MOV      WORD [ESP+0x4], 0x9f8                            EAX=F6FBD1FD ECX=77AE3804 EDX=FFFFFDFD EBX=EC5D4102 ESP=0018FE18 EBP=0018FF24 ESI=0040C6E9 EDI=0018FE48 EFLAG=00000282
0040A3B3	MOV      [EBP+0x4], EAX                                   EAX=F6FBD1FD ECX=77AE3804 EDX=FFFFFDFD EBX=EC5D4102 ESP=0018FE18 EBP=0018FF24 ESI=0040C6E9 EDI=0018FE48 EFLAG=00000282
0040AF1A	PUSHF                                                     EAX=F6FBD1FD ECX=77AE3804 EDX=FFFFFDFD EBX=EC5D4102 ESP=0018FE18 EBP=0018FF24 ESI=0040C6E9 EDI=0018FE48 EFLAG=00000282
0040AF1B	POP      DWORD [ESP+0x2c]                                 EAX=F6FBD1FD ECX=77AE3804 EDX=FFFFFDFD EBX=EC5D4102 ESP=0018FE14 EBP=0018FF24 ESI=0040C6E9 EDI=0018FE48 EFLAG=00000282
0040AF1F	CALL     0x40ab63                                         EAX=F6FBD1FD ECX=77AE3804 EDX=FFFFFDFD EBX=EC5D4102 ESP=0018FE18 EBP=0018FF24 ESI=0040C6E9 EDI=0018FE48 EFLAG=00000282
0040AB63	MOV      BYTE [ESP+0x8], 0x9                              EAX=F6FBD1FD ECX=77AE3804 EDX=FFFFFDFD EBX=EC5D4102 ESP=0018FE14 EBP=0018FF24 ESI=0040C6E9 EDI=0018FE48 EFLAG=00000282
0040AB68	PUSH     DWORD [ESP+0x30]                                 EAX=F6FBD1FD ECX=77AE3804 EDX=FFFFFDFD EBX=EC5D4102 ESP=0018FE14 EBP=0018FF24 ESI=0040C6E9 EDI=0018FE48 EFLAG=00000282
0040AB6C	POP      DWORD [EBP+0x0]                                  EAX=F6FBD1FD ECX=77AE3804 EDX=FFFFFDFD EBX=EC5D4102 ESP=0018FE10 EBP=0018FF24 ESI=0040C6E9 EDI=0018FE48 EFLAG=00000282
0040AB6F	PUSH     EDI                                              EAX=F6FBD1FD ECX=77AE3804 EDX=FFFFFDFD EBX=EC5D4102 ESP=0018FE14 EBP=0018FF24 ESI=0040C6E9 EDI=0018FE48 EFLAG=00000282
0040AB70	PUSHF                                                     EAX=F6FBD1FD ECX=77AE3804 EDX=FFFFFDFD EBX=EC5D4102 ESP=0018FE10 EBP=0018FF24 ESI=0040C6E9 EDI=0018FE48 EFLAG=00000282
0040AB71	LEA      ESP, [ESP+0x3c]                                  EAX=F6FBD1FD ECX=77AE3804 EDX=FFFFFDFD EBX=EC5D4102 ESP=0018FE0C EBP=0018FF24 ESI=0040C6E9 EDI=0018FE48 EFLAG=00000282
0040BEFD	BSWAP    DX                                               EAX=F6FBD1FD ECX=77AE3804 EDX=FFFFFDFD EBX=EC5D4102 ESP=0018FE48 EBP=0018FF24 ESI=0040C6E9 EDI=0018FE48 EFLAG=00000282
0040BF00	RCL      DL, CL                                           EAX=F6FBD1FD ECX=77AE3804 EDX=FFFF0000 EBX=EC5D4102 ESP=0018FE48 EBP=0018FF24 ESI=0040C6E9 EDI=0018FE48 EFLAG=00000282
0040BF02	PUSHA                                                     EAX=F6FBD1FD ECX=77AE3804 EDX=FFFF0000 EBX=EC5D4102 ESP=0018FE48 EBP=0018FF24 ESI=0040C6E9 EDI=0018FE48 EFLAG=00000282
0040BF03	AND      EDX, 0xfdc85d80                                  EAX=F6FBD1FD ECX=77AE3804 EDX=FFFF0000 EBX=EC5D4102 ESP=0018FE28 EBP=0018FF24 ESI=0040C6E9 EDI=0018FE48 EFLAG=00000282
0040BF09	MOV      AL, [ESI-0x1]                                    EAX=F6FBD1FD ECX=77AE3804 EDX=FDC80000 EBX=EC5D4102 ESP=0018FE28 EBP=0018FF24 ESI=0040C6E9 EDI=0018FE48 EFLAG=00000286
0040BF0C	DEC      DH                                               EAX=F6FBD1FA ECX=77AE3804 EDX=FDC80000 EBX=EC5D4102 ESP=0018FE28 EBP=0018FF24 ESI=0040C6E9 EDI=0018FE48 EFLAG=00000286
0040BF0E	SUB      AL, BL                                           EAX=F6FBD1FA ECX=77AE3804 EDX=FDC8FF00 EBX=EC5D4102 ESP=0018FE28 EBP=0018FF24 ESI=0040C6E9 EDI=0018FE48 EFLAG=00000296
